ARM GAS  C:\Users\W_LINU~1\AppData\Local\Temp\ccSgbE3b.s 			page 1


   1              		.cpu cortex-m0plus
   2              		.arch armv6s-m
   3              		.fpu softvfp
   4              		.eabi_attribute 20, 1
   5              		.eabi_attribute 21, 1
   6              		.eabi_attribute 23, 3
   7              		.eabi_attribute 24, 1
   8              		.eabi_attribute 25, 1
   9              		.eabi_attribute 26, 1
  10              		.eabi_attribute 30, 1
  11              		.eabi_attribute 34, 0
  12              		.eabi_attribute 18, 4
  13              		.file	"main.c"
  14              		.text
  15              	.Ltext0:
  16              		.cfi_sections	.debug_frame
  17              		.file 1 "Core/Src/main.c"
  18              		.section	.rodata.HAL_UART_RxCpltCallback.str1.4,"aMS",%progbits,1
  19              		.align	2
  20              	.LC5:
  21 0000 52656365 		.ascii	"Received:%s\015\012\000"
  21      69766564 
  21      3A25730D 
  21      0A00
  22              		.section	.text.HAL_UART_RxCpltCallback,"ax",%progbits
  23              		.align	1
  24              		.global	HAL_UART_RxCpltCallback
  25              		.syntax unified
  26              		.code	16
  27              		.thumb_func
  29              	HAL_UART_RxCpltCallback:
  30              	.LVL0:
  31              	.LFB295:
   1:Core/Src/main.c **** /* USER CODE BEGIN Header */
   2:Core/Src/main.c **** /**
   3:Core/Src/main.c ****   ******************************************************************************
   4:Core/Src/main.c ****   * @file           : main.c
   5:Core/Src/main.c ****   * @brief          : Main program body
   6:Core/Src/main.c ****   ******************************************************************************
   7:Core/Src/main.c ****   * @attention
   8:Core/Src/main.c ****   *
   9:Core/Src/main.c ****   * Copyright (c) 2022 STMicroelectronics.
  10:Core/Src/main.c ****   * All rights reserved.
  11:Core/Src/main.c ****   *
  12:Core/Src/main.c ****   * This software is licensed under terms that can be found in the LICENSE file
  13:Core/Src/main.c ****   * in the root directory of this software component.
  14:Core/Src/main.c ****   * If no LICENSE file comes with this software, it is provided AS-IS.
  15:Core/Src/main.c ****   *
  16:Core/Src/main.c ****   ******************************************************************************
  17:Core/Src/main.c ****   */
  18:Core/Src/main.c **** /* USER CODE END Header */
  19:Core/Src/main.c **** /* Includes ------------------------------------------------------------------*/
  20:Core/Src/main.c **** #include "main.h"
  21:Core/Src/main.c **** #include "dma.h"
  22:Core/Src/main.c **** #include "spi.h"
  23:Core/Src/main.c **** #include "usart.h"
  24:Core/Src/main.c **** #include "gpio.h"
ARM GAS  C:\Users\W_LINU~1\AppData\Local\Temp\ccSgbE3b.s 			page 2


  25:Core/Src/main.c **** 
  26:Core/Src/main.c **** /* Private includes ----------------------------------------------------------*/
  27:Core/Src/main.c **** /* USER CODE BEGIN Includes */
  28:Core/Src/main.c **** #include <si446x.h>
  29:Core/Src/main.c **** #include <POCSAG_Generate.h>
  30:Core/Src/main.c **** #include <stdio.h>
  31:Core/Src/main.c **** #include <stdlib.h>
  32:Core/Src/main.c **** #include <string.h>
  33:Core/Src/main.c **** /* USER CODE END Includes */
  34:Core/Src/main.c **** 
  35:Core/Src/main.c **** /* Private typedef -----------------------------------------------------------*/
  36:Core/Src/main.c **** /* USER CODE BEGIN PTD */
  37:Core/Src/main.c **** 
  38:Core/Src/main.c **** /* USER CODE END PTD */
  39:Core/Src/main.c **** 
  40:Core/Src/main.c **** /* Private define ------------------------------------------------------------*/
  41:Core/Src/main.c **** /* USER CODE BEGIN PD */
  42:Core/Src/main.c **** /* USER CODE END PD */
  43:Core/Src/main.c **** 
  44:Core/Src/main.c **** /* Private macro -------------------------------------------------------------*/
  45:Core/Src/main.c **** /* USER CODE BEGIN PM */
  46:Core/Src/main.c **** 
  47:Core/Src/main.c **** /* USER CODE END PM */
  48:Core/Src/main.c **** 
  49:Core/Src/main.c **** /* Private variables ---------------------------------------------------------*/
  50:Core/Src/main.c **** 
  51:Core/Src/main.c **** /* USER CODE BEGIN PV */
  52:Core/Src/main.c **** uint8_t g_UartRxBuffer[ 400 ] = { 0 };
  53:Core/Src/main.c **** uint16_t i=0;
  54:Core/Src/main.c **** 
  55:Core/Src/main.c **** uint8_t strLength=0;
  56:Core/Src/main.c **** uint32_t TxBuffer[TXBUFF_SIZE];
  57:Core/Src/main.c **** 
  58:Core/Src/main.c **** uint8_t txSize=0;
  59:Core/Src/main.c **** 
  60:Core/Src/main.c **** uint8_t rxChar;
  61:Core/Src/main.c **** uint8_t rxOKFlag[4]={0,0,0,0}; // 00-rx not start yet. 10-rx started but not finish. 11-rx finished
  62:Core/Src/main.c **** uint8_t UartBuffer[256]={0};
  63:Core/Src/main.c **** 
  64:Core/Src/main.c **** POCSAG_MSG Pager; //Pager Data Struct
  65:Core/Src/main.c **** int8_t POCSAG_Message_Generated_Status;
  66:Core/Src/main.c **** 
  67:Core/Src/main.c **** extern uint32_t POCSAG_Batch1[16];	//码组1，包含16个码字
  68:Core/Src/main.c **** extern uint32_t POCSAG_Batch2[16];	//码组2，包含16个码字
  69:Core/Src/main.c **** /* USER CODE END PV */
  70:Core/Src/main.c **** 
  71:Core/Src/main.c **** /* Private function prototypes -----------------------------------------------*/
  72:Core/Src/main.c **** void SystemClock_Config(void);
  73:Core/Src/main.c **** /* USER CODE BEGIN PFP */
  74:Core/Src/main.c **** 
  75:Core/Src/main.c **** /* USER CODE END PFP */
  76:Core/Src/main.c **** 
  77:Core/Src/main.c **** /* Private user code ---------------------------------------------------------*/
  78:Core/Src/main.c **** /* USER CODE BEGIN 0 */
  79:Core/Src/main.c **** 
  80:Core/Src/main.c **** /* USER CODE END 0 */
  81:Core/Src/main.c **** 
ARM GAS  C:\Users\W_LINU~1\AppData\Local\Temp\ccSgbE3b.s 			page 3


  82:Core/Src/main.c **** /**
  83:Core/Src/main.c ****   * @brief  The application entry point.
  84:Core/Src/main.c ****   * @retval int
  85:Core/Src/main.c ****   */
  86:Core/Src/main.c **** int main(void)
  87:Core/Src/main.c **** {
  88:Core/Src/main.c ****   /* USER CODE BEGIN 1 */
  89:Core/Src/main.c **** 
  90:Core/Src/main.c ****   /* USER CODE END 1 */
  91:Core/Src/main.c **** 
  92:Core/Src/main.c ****   /* MCU Configuration--------------------------------------------------------*/
  93:Core/Src/main.c **** 
  94:Core/Src/main.c ****   /* Reset of all peripherals, Initializes the Flash interface and the Systick. */
  95:Core/Src/main.c ****   HAL_Init();
  96:Core/Src/main.c **** 
  97:Core/Src/main.c ****   /* USER CODE BEGIN Init */
  98:Core/Src/main.c **** 
  99:Core/Src/main.c ****   /* USER CODE END Init */
 100:Core/Src/main.c **** 
 101:Core/Src/main.c ****   /* Configure the system clock */
 102:Core/Src/main.c ****   SystemClock_Config();
 103:Core/Src/main.c **** 
 104:Core/Src/main.c ****   /* USER CODE BEGIN SysInit */
 105:Core/Src/main.c **** 
 106:Core/Src/main.c ****   /* USER CODE END SysInit */
 107:Core/Src/main.c **** 
 108:Core/Src/main.c ****   /* Initialize all configured peripherals */
 109:Core/Src/main.c ****   MX_GPIO_Init();
 110:Core/Src/main.c ****   MX_DMA_Init();
 111:Core/Src/main.c ****   MX_SPI1_Init();
 112:Core/Src/main.c ****   MX_USART1_UART_Init();
 113:Core/Src/main.c ****   /* USER CODE BEGIN 2 */
 114:Core/Src/main.c **** 	SI446x_Init();
 115:Core/Src/main.c ****   HAL_UART_Receive_DMA(&huart1,&rxChar,1);
 116:Core/Src/main.c **** 
 117:Core/Src/main.c ****   /* USER CODE END 2 */
 118:Core/Src/main.c **** 
 119:Core/Src/main.c ****   /* Infinite loop */
 120:Core/Src/main.c ****   /* USER CODE BEGIN WHILE */
 121:Core/Src/main.c ****   while (1)
 122:Core/Src/main.c ****   {
 123:Core/Src/main.c ****     if(/*rxOKFlag[3]==1*/rxOKFlag[3]==1&&(UartBuffer[TEXT_OR_NUM]=='N'||UartBuffer[TEXT_OR_NUM]=='T
 124:Core/Src/main.c ****       prepare_POCSAG_Data(UartBuffer,Pager);
 125:Core/Src/main.c **** 
 126:Core/Src/main.c ****       if(UartBuffer[TEXT_OR_NUM]=='N'){
 127:Core/Src/main.c ****         printf("Numberic Data Detected!\r\n");
 128:Core/Src/main.c ****         
 129:Core/Src/main.c ****       }
 130:Core/Src/main.c **** 
 131:Core/Src/main.c ****       if(UartBuffer[TEXT_OR_NUM]=='T'){
 132:Core/Src/main.c ****         printf("Text Data Detected!\r\n");
 133:Core/Src/main.c ****       }
 134:Core/Src/main.c **** 
 135:Core/Src/main.c ****       Pager=prepare_POCSAG_Data(UartBuffer,Pager);
 136:Core/Src/main.c **** 
 137:Core/Src/main.c ****       POCSAG_Message_Generated_Status=POCSAG_MakeCodeWords(Pager.Pager_Address,Pager.FuncCode,Pager
 138:Core/Src/main.c ****       Pager.Batch20pt,Pager.InvertOpt);
ARM GAS  C:\Users\W_LINU~1\AppData\Local\Temp\ccSgbE3b.s 			page 4


 139:Core/Src/main.c **** 
 140:Core/Src/main.c ****       if(POCSAG_Message_Generated_Status>POCSAG_ERR_NONE){
 141:Core/Src/main.c ****         SI446x_Send_Packet((uint8_t*)POCSAG_Batch1,64,0,0);
 142:Core/Src/main.c ****       }
 143:Core/Src/main.c ****       memset(POCSAG_Batch1,0,sizeof(POCSAG_Batch1));
 144:Core/Src/main.c ****      // SI446x_Send_Packet((uint8_t*)TxBuff,sizeof(TxBuff),0,0);
 145:Core/Src/main.c **** 
 146:Core/Src/main.c ****      // printf("Data:%x,%x,%x,%x\r\n",test4,test3,test2,test1);
 147:Core/Src/main.c ****       txSize=0;
 148:Core/Src/main.c ****       rxOKFlag[3]=0;
 149:Core/Src/main.c ****     }
 150:Core/Src/main.c **** 	
 151:Core/Src/main.c ****     /* USER CODE END WHILE */
 152:Core/Src/main.c **** 
 153:Core/Src/main.c ****     /* USER CODE BEGIN 3 */
 154:Core/Src/main.c ****   }
 155:Core/Src/main.c ****   /* USER CODE END 3 */
 156:Core/Src/main.c **** }
 157:Core/Src/main.c **** 
 158:Core/Src/main.c **** /**
 159:Core/Src/main.c ****   * @brief System Clock Configuration
 160:Core/Src/main.c ****   * @retval None
 161:Core/Src/main.c ****   */
 162:Core/Src/main.c **** void SystemClock_Config(void)
 163:Core/Src/main.c **** {
 164:Core/Src/main.c ****   RCC_OscInitTypeDef RCC_OscInitStruct = {0};
 165:Core/Src/main.c ****   RCC_ClkInitTypeDef RCC_ClkInitStruct = {0};
 166:Core/Src/main.c **** 
 167:Core/Src/main.c ****   /** Configure the main internal regulator output voltage
 168:Core/Src/main.c ****   */
 169:Core/Src/main.c ****   HAL_PWREx_ControlVoltageScaling(PWR_REGULATOR_VOLTAGE_SCALE1);
 170:Core/Src/main.c **** 
 171:Core/Src/main.c ****   /** Initializes the RCC Oscillators according to the specified parameters
 172:Core/Src/main.c ****   * in the RCC_OscInitTypeDef structure.
 173:Core/Src/main.c ****   */
 174:Core/Src/main.c ****   RCC_OscInitStruct.OscillatorType = RCC_OSCILLATORTYPE_HSE;
 175:Core/Src/main.c ****   RCC_OscInitStruct.HSEState = RCC_HSE_ON;
 176:Core/Src/main.c ****   RCC_OscInitStruct.PLL.PLLState = RCC_PLL_ON;
 177:Core/Src/main.c ****   RCC_OscInitStruct.PLL.PLLSource = RCC_PLLSOURCE_HSE;
 178:Core/Src/main.c ****   RCC_OscInitStruct.PLL.PLLM = RCC_PLLM_DIV1;
 179:Core/Src/main.c ****   RCC_OscInitStruct.PLL.PLLN = 16;
 180:Core/Src/main.c ****   RCC_OscInitStruct.PLL.PLLP = RCC_PLLP_DIV2;
 181:Core/Src/main.c ****   RCC_OscInitStruct.PLL.PLLR = RCC_PLLR_DIV2;
 182:Core/Src/main.c ****   if (HAL_RCC_OscConfig(&RCC_OscInitStruct) != HAL_OK)
 183:Core/Src/main.c ****   {
 184:Core/Src/main.c ****     Error_Handler();
 185:Core/Src/main.c ****   }
 186:Core/Src/main.c **** 
 187:Core/Src/main.c ****   /** Initializes the CPU, AHB and APB buses clocks
 188:Core/Src/main.c ****   */
 189:Core/Src/main.c ****   RCC_ClkInitStruct.ClockType = RCC_CLOCKTYPE_HCLK|RCC_CLOCKTYPE_SYSCLK
 190:Core/Src/main.c ****                               |RCC_CLOCKTYPE_PCLK1;
 191:Core/Src/main.c ****   RCC_ClkInitStruct.SYSCLKSource = RCC_SYSCLKSOURCE_PLLCLK;
 192:Core/Src/main.c ****   RCC_ClkInitStruct.AHBCLKDivider = RCC_SYSCLK_DIV1;
 193:Core/Src/main.c ****   RCC_ClkInitStruct.APB1CLKDivider = RCC_HCLK_DIV1;
 194:Core/Src/main.c **** 
 195:Core/Src/main.c ****   if (HAL_RCC_ClockConfig(&RCC_ClkInitStruct, FLASH_LATENCY_2) != HAL_OK)
ARM GAS  C:\Users\W_LINU~1\AppData\Local\Temp\ccSgbE3b.s 			page 5


 196:Core/Src/main.c ****   {
 197:Core/Src/main.c ****     Error_Handler();
 198:Core/Src/main.c ****   }
 199:Core/Src/main.c **** }
 200:Core/Src/main.c **** 
 201:Core/Src/main.c **** /* USER CODE BEGIN 4 */
 202:Core/Src/main.c ****   void HAL_UART_RxCpltCallback(UART_HandleTypeDef *huart){
  32              		.loc 1 202 58 view -0
  33              		.cfi_startproc
  34              		@ args = 0, pretend = 0, frame = 0
  35              		@ frame_needed = 0, uses_anonymous_args = 0
  36              		.loc 1 202 58 is_stmt 0 view .LVU1
  37 0000 70B5     		push	{r4, r5, r6, lr}
  38              	.LCFI0:
  39              		.cfi_def_cfa_offset 16
  40              		.cfi_offset 4, -16
  41              		.cfi_offset 5, -12
  42              		.cfi_offset 6, -8
  43              		.cfi_offset 14, -4
 203:Core/Src/main.c ****     g_UartRxBuffer[rxOKFlag[2]]=rxChar;
  44              		.loc 1 203 5 is_stmt 1 view .LVU2
  45              		.loc 1 203 28 is_stmt 0 view .LVU3
  46 0002 1A49     		ldr	r1, .L9
  47 0004 8B78     		ldrb	r3, [r1, #2]
  48              		.loc 1 203 32 view .LVU4
  49 0006 1A4A     		ldr	r2, .L9+4
  50 0008 1278     		ldrb	r2, [r2]
  51 000a 1A48     		ldr	r0, .L9+8
  52              	.LVL1:
  53              		.loc 1 203 32 view .LVU5
  54 000c C254     		strb	r2, [r0, r3]
 204:Core/Src/main.c ****     rxOKFlag[2]+=1;
  55              		.loc 1 204 5 is_stmt 1 view .LVU6
  56              		.loc 1 204 16 is_stmt 0 view .LVU7
  57 000e 0133     		adds	r3, r3, #1
  58 0010 8B70     		strb	r3, [r1, #2]
 205:Core/Src/main.c ****     
 206:Core/Src/main.c ****     if(rxChar=='$'){
  59              		.loc 1 206 5 is_stmt 1 view .LVU8
  60              		.loc 1 206 7 is_stmt 0 view .LVU9
  61 0012 242A     		cmp	r2, #36
  62 0014 00D0     		beq	.L7
  63              	.L1:
 207:Core/Src/main.c ****       memset(UartBuffer,0,sizeof(UartBuffer));
 208:Core/Src/main.c ****       for(int i=0;i<256;i++){
 209:Core/Src/main.c ****         if(g_UartRxBuffer[i]=='$'){
 210:Core/Src/main.c ****             strLength=i+1;
 211:Core/Src/main.c ****             break;
 212:Core/Src/main.c ****           }
 213:Core/Src/main.c ****       }
 214:Core/Src/main.c ****       memcpy(UartBuffer,g_UartRxBuffer,strLength);
 215:Core/Src/main.c ****       memset(g_UartRxBuffer,0,sizeof(g_UartRxBuffer));
 216:Core/Src/main.c ****       rxOKFlag[2]=0;
 217:Core/Src/main.c ****       rxOKFlag[3]=1;
 218:Core/Src/main.c ****       printf("Received:%s\r\n",UartBuffer);
 219:Core/Src/main.c ****     }
 220:Core/Src/main.c ****   }
ARM GAS  C:\Users\W_LINU~1\AppData\Local\Temp\ccSgbE3b.s 			page 6


  64              		.loc 1 220 3 view .LVU10
  65              		@ sp needed
  66 0016 70BD     		pop	{r4, r5, r6, pc}
  67              	.L7:
 207:Core/Src/main.c ****       memset(UartBuffer,0,sizeof(UartBuffer));
  68              		.loc 1 207 7 is_stmt 1 view .LVU11
  69 0018 1748     		ldr	r0, .L9+12
  70 001a 5C32     		adds	r2, r2, #92
  71 001c 5200     		lsls	r2, r2, #1
  72 001e 0021     		movs	r1, #0
  73 0020 FFF7FEFF 		bl	memset
  74              	.LVL2:
 208:Core/Src/main.c ****         if(g_UartRxBuffer[i]=='$'){
  75              		.loc 1 208 7 view .LVU12
  76              	.LBB4:
 208:Core/Src/main.c ****         if(g_UartRxBuffer[i]=='$'){
  77              		.loc 1 208 11 view .LVU13
 208:Core/Src/main.c ****         if(g_UartRxBuffer[i]=='$'){
  78              		.loc 1 208 15 is_stmt 0 view .LVU14
  79 0024 0023     		movs	r3, #0
  80              	.LVL3:
  81              	.L3:
 208:Core/Src/main.c ****         if(g_UartRxBuffer[i]=='$'){
  82              		.loc 1 208 20 is_stmt 1 discriminator 1 view .LVU15
  83 0026 FF2B     		cmp	r3, #255
  84 0028 08DC     		bgt	.L5
 209:Core/Src/main.c ****             strLength=i+1;
  85              		.loc 1 209 9 view .LVU16
 209:Core/Src/main.c ****             strLength=i+1;
  86              		.loc 1 209 26 is_stmt 0 view .LVU17
  87 002a 124A     		ldr	r2, .L9+8
  88 002c D25C     		ldrb	r2, [r2, r3]
 209:Core/Src/main.c ****             strLength=i+1;
  89              		.loc 1 209 11 view .LVU18
  90 002e 242A     		cmp	r2, #36
  91 0030 01D0     		beq	.L8
 208:Core/Src/main.c ****         if(g_UartRxBuffer[i]=='$'){
  92              		.loc 1 208 26 is_stmt 1 discriminator 2 view .LVU19
  93 0032 0133     		adds	r3, r3, #1
  94              	.LVL4:
 208:Core/Src/main.c ****         if(g_UartRxBuffer[i]=='$'){
  95              		.loc 1 208 26 is_stmt 0 discriminator 2 view .LVU20
  96 0034 F7E7     		b	.L3
  97              	.L8:
 210:Core/Src/main.c ****             break;
  98              		.loc 1 210 13 is_stmt 1 view .LVU21
 210:Core/Src/main.c ****             break;
  99              		.loc 1 210 24 is_stmt 0 view .LVU22
 100 0036 0133     		adds	r3, r3, #1
 101              	.LVL5:
 210:Core/Src/main.c ****             break;
 102              		.loc 1 210 22 view .LVU23
 103 0038 104A     		ldr	r2, .L9+16
 104 003a 1370     		strb	r3, [r2]
 211:Core/Src/main.c ****           }
 105              		.loc 1 211 13 is_stmt 1 view .LVU24
 106              	.LVL6:
ARM GAS  C:\Users\W_LINU~1\AppData\Local\Temp\ccSgbE3b.s 			page 7


 107              	.L5:
 211:Core/Src/main.c ****           }
 108              		.loc 1 211 13 is_stmt 0 view .LVU25
 109              	.LBE4:
 214:Core/Src/main.c ****       memset(g_UartRxBuffer,0,sizeof(g_UartRxBuffer));
 110              		.loc 1 214 7 is_stmt 1 view .LVU26
 111 003c 0E4C     		ldr	r4, .L9+12
 112 003e 0F4B     		ldr	r3, .L9+16
 113 0040 1A78     		ldrb	r2, [r3]
 114 0042 0C4D     		ldr	r5, .L9+8
 115 0044 2900     		movs	r1, r5
 116 0046 2000     		movs	r0, r4
 117 0048 FFF7FEFF 		bl	memcpy
 118              	.LVL7:
 215:Core/Src/main.c ****       rxOKFlag[2]=0;
 119              		.loc 1 215 7 view .LVU27
 120 004c C822     		movs	r2, #200
 121 004e 5200     		lsls	r2, r2, #1
 122 0050 0021     		movs	r1, #0
 123 0052 2800     		movs	r0, r5
 124 0054 FFF7FEFF 		bl	memset
 125              	.LVL8:
 216:Core/Src/main.c ****       rxOKFlag[3]=1;
 126              		.loc 1 216 7 view .LVU28
 216:Core/Src/main.c ****       rxOKFlag[3]=1;
 127              		.loc 1 216 18 is_stmt 0 view .LVU29
 128 0058 044B     		ldr	r3, .L9
 129 005a 0022     		movs	r2, #0
 130 005c 9A70     		strb	r2, [r3, #2]
 217:Core/Src/main.c ****       printf("Received:%s\r\n",UartBuffer);
 131              		.loc 1 217 7 is_stmt 1 view .LVU30
 217:Core/Src/main.c ****       printf("Received:%s\r\n",UartBuffer);
 132              		.loc 1 217 18 is_stmt 0 view .LVU31
 133 005e 0132     		adds	r2, r2, #1
 134 0060 DA70     		strb	r2, [r3, #3]
 218:Core/Src/main.c ****     }
 135              		.loc 1 218 7 is_stmt 1 view .LVU32
 136 0062 0748     		ldr	r0, .L9+20
 137 0064 2100     		movs	r1, r4
 138 0066 FFF7FEFF 		bl	printf
 139              	.LVL9:
 140              		.loc 1 220 3 is_stmt 0 view .LVU33
 141 006a D4E7     		b	.L1
 142              	.L10:
 143              		.align	2
 144              	.L9:
 145 006c 00000000 		.word	rxOKFlag
 146 0070 00000000 		.word	rxChar
 147 0074 00000000 		.word	g_UartRxBuffer
 148 0078 00000000 		.word	UartBuffer
 149 007c 00000000 		.word	strLength
 150 0080 00000000 		.word	.LC5
 151              		.cfi_endproc
 152              	.LFE295:
 154              		.section	.text.Error_Handler,"ax",%progbits
 155              		.align	1
 156              		.global	Error_Handler
ARM GAS  C:\Users\W_LINU~1\AppData\Local\Temp\ccSgbE3b.s 			page 8


 157              		.syntax unified
 158              		.code	16
 159              		.thumb_func
 161              	Error_Handler:
 162              	.LFB296:
 221:Core/Src/main.c **** /* USER CODE END 4 */
 222:Core/Src/main.c **** 
 223:Core/Src/main.c **** /**
 224:Core/Src/main.c ****   * @brief  This function is executed in case of error occurrence.
 225:Core/Src/main.c ****   * @retval None
 226:Core/Src/main.c ****   */
 227:Core/Src/main.c **** void Error_Handler(void)
 228:Core/Src/main.c **** {
 163              		.loc 1 228 1 is_stmt 1 view -0
 164              		.cfi_startproc
 165              		@ Volatile: function does not return.
 166              		@ args = 0, pretend = 0, frame = 0
 167              		@ frame_needed = 0, uses_anonymous_args = 0
 168              		@ link register save eliminated.
 229:Core/Src/main.c ****   /* USER CODE BEGIN Error_Handler_Debug */
 230:Core/Src/main.c ****   /* User can add his own implementation to report the HAL error return state */
 231:Core/Src/main.c ****   __disable_irq();
 169              		.loc 1 231 3 view .LVU35
 170              	.LBB5:
 171              	.LBI5:
 172              		.file 2 "Drivers/CMSIS/Include/cmsis_gcc.h"
   1:Drivers/CMSIS/Include/cmsis_gcc.h **** /**************************************************************************//**
   2:Drivers/CMSIS/Include/cmsis_gcc.h ****  * @file     cmsis_gcc.h
   3:Drivers/CMSIS/Include/cmsis_gcc.h ****  * @brief    CMSIS compiler GCC header file
   4:Drivers/CMSIS/Include/cmsis_gcc.h ****  * @version  V5.2.0
   5:Drivers/CMSIS/Include/cmsis_gcc.h ****  * @date     08. May 2019
   6:Drivers/CMSIS/Include/cmsis_gcc.h ****  ******************************************************************************/
   7:Drivers/CMSIS/Include/cmsis_gcc.h **** /*
   8:Drivers/CMSIS/Include/cmsis_gcc.h ****  * Copyright (c) 2009-2019 Arm Limited. All rights reserved.
   9:Drivers/CMSIS/Include/cmsis_gcc.h ****  *
  10:Drivers/CMSIS/Include/cmsis_gcc.h ****  * SPDX-License-Identifier: Apache-2.0
  11:Drivers/CMSIS/Include/cmsis_gcc.h ****  *
  12:Drivers/CMSIS/Include/cmsis_gcc.h ****  * Licensed under the Apache License, Version 2.0 (the License); you may
  13:Drivers/CMSIS/Include/cmsis_gcc.h ****  * not use this file except in compliance with the License.
  14:Drivers/CMSIS/Include/cmsis_gcc.h ****  * You may obtain a copy of the License at
  15:Drivers/CMSIS/Include/cmsis_gcc.h ****  *
  16:Drivers/CMSIS/Include/cmsis_gcc.h ****  * www.apache.org/licenses/LICENSE-2.0
  17:Drivers/CMSIS/Include/cmsis_gcc.h ****  *
  18:Drivers/CMSIS/Include/cmsis_gcc.h ****  * Unless required by applicable law or agreed to in writing, software
  19:Drivers/CMSIS/Include/cmsis_gcc.h ****  * distributed under the License is distributed on an AS IS BASIS, WITHOUT
  20:Drivers/CMSIS/Include/cmsis_gcc.h ****  * WARRANTIES OR CONDITIONS OF ANY KIND, either express or implied.
  21:Drivers/CMSIS/Include/cmsis_gcc.h ****  * See the License for the specific language governing permissions and
  22:Drivers/CMSIS/Include/cmsis_gcc.h ****  * limitations under the License.
  23:Drivers/CMSIS/Include/cmsis_gcc.h ****  */
  24:Drivers/CMSIS/Include/cmsis_gcc.h **** 
  25:Drivers/CMSIS/Include/cmsis_gcc.h **** #ifndef __CMSIS_GCC_H
  26:Drivers/CMSIS/Include/cmsis_gcc.h **** #define __CMSIS_GCC_H
  27:Drivers/CMSIS/Include/cmsis_gcc.h **** 
  28:Drivers/CMSIS/Include/cmsis_gcc.h **** /* ignore some GCC warnings */
  29:Drivers/CMSIS/Include/cmsis_gcc.h **** #pragma GCC diagnostic push
  30:Drivers/CMSIS/Include/cmsis_gcc.h **** #pragma GCC diagnostic ignored "-Wsign-conversion"
  31:Drivers/CMSIS/Include/cmsis_gcc.h **** #pragma GCC diagnostic ignored "-Wconversion"
ARM GAS  C:\Users\W_LINU~1\AppData\Local\Temp\ccSgbE3b.s 			page 9


  32:Drivers/CMSIS/Include/cmsis_gcc.h **** #pragma GCC diagnostic ignored "-Wunused-parameter"
  33:Drivers/CMSIS/Include/cmsis_gcc.h **** 
  34:Drivers/CMSIS/Include/cmsis_gcc.h **** /* Fallback for __has_builtin */
  35:Drivers/CMSIS/Include/cmsis_gcc.h **** #ifndef __has_builtin
  36:Drivers/CMSIS/Include/cmsis_gcc.h ****   #define __has_builtin(x) (0)
  37:Drivers/CMSIS/Include/cmsis_gcc.h **** #endif
  38:Drivers/CMSIS/Include/cmsis_gcc.h **** 
  39:Drivers/CMSIS/Include/cmsis_gcc.h **** /* CMSIS compiler specific defines */
  40:Drivers/CMSIS/Include/cmsis_gcc.h **** #ifndef   __ASM
  41:Drivers/CMSIS/Include/cmsis_gcc.h ****   #define __ASM                                  __asm
  42:Drivers/CMSIS/Include/cmsis_gcc.h **** #endif
  43:Drivers/CMSIS/Include/cmsis_gcc.h **** #ifndef   __INLINE
  44:Drivers/CMSIS/Include/cmsis_gcc.h ****   #define __INLINE                               inline
  45:Drivers/CMSIS/Include/cmsis_gcc.h **** #endif
  46:Drivers/CMSIS/Include/cmsis_gcc.h **** #ifndef   __STATIC_INLINE
  47:Drivers/CMSIS/Include/cmsis_gcc.h ****   #define __STATIC_INLINE                        static inline
  48:Drivers/CMSIS/Include/cmsis_gcc.h **** #endif
  49:Drivers/CMSIS/Include/cmsis_gcc.h **** #ifndef   __STATIC_FORCEINLINE                 
  50:Drivers/CMSIS/Include/cmsis_gcc.h ****   #define __STATIC_FORCEINLINE                   __attribute__((always_inline)) static inline
  51:Drivers/CMSIS/Include/cmsis_gcc.h **** #endif                                           
  52:Drivers/CMSIS/Include/cmsis_gcc.h **** #ifndef   __NO_RETURN
  53:Drivers/CMSIS/Include/cmsis_gcc.h ****   #define __NO_RETURN                            __attribute__((__noreturn__))
  54:Drivers/CMSIS/Include/cmsis_gcc.h **** #endif
  55:Drivers/CMSIS/Include/cmsis_gcc.h **** #ifndef   __USED
  56:Drivers/CMSIS/Include/cmsis_gcc.h ****   #define __USED                                 __attribute__((used))
  57:Drivers/CMSIS/Include/cmsis_gcc.h **** #endif
  58:Drivers/CMSIS/Include/cmsis_gcc.h **** #ifndef   __WEAK
  59:Drivers/CMSIS/Include/cmsis_gcc.h ****   #define __WEAK                                 __attribute__((weak))
  60:Drivers/CMSIS/Include/cmsis_gcc.h **** #endif
  61:Drivers/CMSIS/Include/cmsis_gcc.h **** #ifndef   __PACKED
  62:Drivers/CMSIS/Include/cmsis_gcc.h ****   #define __PACKED                               __attribute__((packed, aligned(1)))
  63:Drivers/CMSIS/Include/cmsis_gcc.h **** #endif
  64:Drivers/CMSIS/Include/cmsis_gcc.h **** #ifndef   __PACKED_STRUCT
  65:Drivers/CMSIS/Include/cmsis_gcc.h ****   #define __PACKED_STRUCT                        struct __attribute__((packed, aligned(1)))
  66:Drivers/CMSIS/Include/cmsis_gcc.h **** #endif
  67:Drivers/CMSIS/Include/cmsis_gcc.h **** #ifndef   __PACKED_UNION
  68:Drivers/CMSIS/Include/cmsis_gcc.h ****   #define __PACKED_UNION                         union __attribute__((packed, aligned(1)))
  69:Drivers/CMSIS/Include/cmsis_gcc.h **** #endif
  70:Drivers/CMSIS/Include/cmsis_gcc.h **** #ifndef   __UNALIGNED_UINT32        /* deprecated */
  71:Drivers/CMSIS/Include/cmsis_gcc.h ****   #pragma GCC diagnostic push
  72:Drivers/CMSIS/Include/cmsis_gcc.h ****   #pragma GCC diagnostic ignored "-Wpacked"
  73:Drivers/CMSIS/Include/cmsis_gcc.h ****   #pragma GCC diagnostic ignored "-Wattributes"
  74:Drivers/CMSIS/Include/cmsis_gcc.h ****   struct __attribute__((packed)) T_UINT32 { uint32_t v; };
  75:Drivers/CMSIS/Include/cmsis_gcc.h ****   #pragma GCC diagnostic pop
  76:Drivers/CMSIS/Include/cmsis_gcc.h ****   #define __UNALIGNED_UINT32(x)                  (((struct T_UINT32 *)(x))->v)
  77:Drivers/CMSIS/Include/cmsis_gcc.h **** #endif
  78:Drivers/CMSIS/Include/cmsis_gcc.h **** #ifndef   __UNALIGNED_UINT16_WRITE
  79:Drivers/CMSIS/Include/cmsis_gcc.h ****   #pragma GCC diagnostic push
  80:Drivers/CMSIS/Include/cmsis_gcc.h ****   #pragma GCC diagnostic ignored "-Wpacked"
  81:Drivers/CMSIS/Include/cmsis_gcc.h ****   #pragma GCC diagnostic ignored "-Wattributes"
  82:Drivers/CMSIS/Include/cmsis_gcc.h ****   __PACKED_STRUCT T_UINT16_WRITE { uint16_t v; };
  83:Drivers/CMSIS/Include/cmsis_gcc.h ****   #pragma GCC diagnostic pop
  84:Drivers/CMSIS/Include/cmsis_gcc.h ****   #define __UNALIGNED_UINT16_WRITE(addr, val)    (void)((((struct T_UINT16_WRITE *)(void *)(addr))-
  85:Drivers/CMSIS/Include/cmsis_gcc.h **** #endif
  86:Drivers/CMSIS/Include/cmsis_gcc.h **** #ifndef   __UNALIGNED_UINT16_READ
  87:Drivers/CMSIS/Include/cmsis_gcc.h ****   #pragma GCC diagnostic push
  88:Drivers/CMSIS/Include/cmsis_gcc.h ****   #pragma GCC diagnostic ignored "-Wpacked"
ARM GAS  C:\Users\W_LINU~1\AppData\Local\Temp\ccSgbE3b.s 			page 10


  89:Drivers/CMSIS/Include/cmsis_gcc.h ****   #pragma GCC diagnostic ignored "-Wattributes"
  90:Drivers/CMSIS/Include/cmsis_gcc.h ****   __PACKED_STRUCT T_UINT16_READ { uint16_t v; };
  91:Drivers/CMSIS/Include/cmsis_gcc.h ****   #pragma GCC diagnostic pop
  92:Drivers/CMSIS/Include/cmsis_gcc.h ****   #define __UNALIGNED_UINT16_READ(addr)          (((const struct T_UINT16_READ *)(const void *)(add
  93:Drivers/CMSIS/Include/cmsis_gcc.h **** #endif
  94:Drivers/CMSIS/Include/cmsis_gcc.h **** #ifndef   __UNALIGNED_UINT32_WRITE
  95:Drivers/CMSIS/Include/cmsis_gcc.h ****   #pragma GCC diagnostic push
  96:Drivers/CMSIS/Include/cmsis_gcc.h ****   #pragma GCC diagnostic ignored "-Wpacked"
  97:Drivers/CMSIS/Include/cmsis_gcc.h ****   #pragma GCC diagnostic ignored "-Wattributes"
  98:Drivers/CMSIS/Include/cmsis_gcc.h ****   __PACKED_STRUCT T_UINT32_WRITE { uint32_t v; };
  99:Drivers/CMSIS/Include/cmsis_gcc.h ****   #pragma GCC diagnostic pop
 100:Drivers/CMSIS/Include/cmsis_gcc.h ****   #define __UNALIGNED_UINT32_WRITE(addr, val)    (void)((((struct T_UINT32_WRITE *)(void *)(addr))-
 101:Drivers/CMSIS/Include/cmsis_gcc.h **** #endif
 102:Drivers/CMSIS/Include/cmsis_gcc.h **** #ifndef   __UNALIGNED_UINT32_READ
 103:Drivers/CMSIS/Include/cmsis_gcc.h ****   #pragma GCC diagnostic push
 104:Drivers/CMSIS/Include/cmsis_gcc.h ****   #pragma GCC diagnostic ignored "-Wpacked"
 105:Drivers/CMSIS/Include/cmsis_gcc.h ****   #pragma GCC diagnostic ignored "-Wattributes"
 106:Drivers/CMSIS/Include/cmsis_gcc.h ****   __PACKED_STRUCT T_UINT32_READ { uint32_t v; };
 107:Drivers/CMSIS/Include/cmsis_gcc.h ****   #pragma GCC diagnostic pop
 108:Drivers/CMSIS/Include/cmsis_gcc.h ****   #define __UNALIGNED_UINT32_READ(addr)          (((const struct T_UINT32_READ *)(const void *)(add
 109:Drivers/CMSIS/Include/cmsis_gcc.h **** #endif
 110:Drivers/CMSIS/Include/cmsis_gcc.h **** #ifndef   __ALIGNED
 111:Drivers/CMSIS/Include/cmsis_gcc.h ****   #define __ALIGNED(x)                           __attribute__((aligned(x)))
 112:Drivers/CMSIS/Include/cmsis_gcc.h **** #endif
 113:Drivers/CMSIS/Include/cmsis_gcc.h **** #ifndef   __RESTRICT
 114:Drivers/CMSIS/Include/cmsis_gcc.h ****   #define __RESTRICT                             __restrict
 115:Drivers/CMSIS/Include/cmsis_gcc.h **** #endif
 116:Drivers/CMSIS/Include/cmsis_gcc.h **** #ifndef   __COMPILER_BARRIER
 117:Drivers/CMSIS/Include/cmsis_gcc.h ****   #define __COMPILER_BARRIER()                   __ASM volatile("":::"memory")
 118:Drivers/CMSIS/Include/cmsis_gcc.h **** #endif
 119:Drivers/CMSIS/Include/cmsis_gcc.h **** 
 120:Drivers/CMSIS/Include/cmsis_gcc.h **** /* #########################  Startup and Lowlevel Init  ######################## */
 121:Drivers/CMSIS/Include/cmsis_gcc.h **** 
 122:Drivers/CMSIS/Include/cmsis_gcc.h **** #ifndef __PROGRAM_START
 123:Drivers/CMSIS/Include/cmsis_gcc.h **** 
 124:Drivers/CMSIS/Include/cmsis_gcc.h **** /**
 125:Drivers/CMSIS/Include/cmsis_gcc.h ****   \brief   Initializes data and bss sections
 126:Drivers/CMSIS/Include/cmsis_gcc.h ****   \details This default implementations initialized all data and additional bss
 127:Drivers/CMSIS/Include/cmsis_gcc.h ****            sections relying on .copy.table and .zero.table specified properly
 128:Drivers/CMSIS/Include/cmsis_gcc.h ****            in the used linker script.
 129:Drivers/CMSIS/Include/cmsis_gcc.h ****   
 130:Drivers/CMSIS/Include/cmsis_gcc.h ****  */
 131:Drivers/CMSIS/Include/cmsis_gcc.h **** __STATIC_FORCEINLINE __NO_RETURN void __cmsis_start(void)
 132:Drivers/CMSIS/Include/cmsis_gcc.h **** {
 133:Drivers/CMSIS/Include/cmsis_gcc.h ****   extern void _start(void) __NO_RETURN;
 134:Drivers/CMSIS/Include/cmsis_gcc.h ****   
 135:Drivers/CMSIS/Include/cmsis_gcc.h ****   typedef struct {
 136:Drivers/CMSIS/Include/cmsis_gcc.h ****     uint32_t const* src;
 137:Drivers/CMSIS/Include/cmsis_gcc.h ****     uint32_t* dest;
 138:Drivers/CMSIS/Include/cmsis_gcc.h ****     uint32_t  wlen;
 139:Drivers/CMSIS/Include/cmsis_gcc.h ****   } __copy_table_t;
 140:Drivers/CMSIS/Include/cmsis_gcc.h ****   
 141:Drivers/CMSIS/Include/cmsis_gcc.h ****   typedef struct {
 142:Drivers/CMSIS/Include/cmsis_gcc.h ****     uint32_t* dest;
 143:Drivers/CMSIS/Include/cmsis_gcc.h ****     uint32_t  wlen;
 144:Drivers/CMSIS/Include/cmsis_gcc.h ****   } __zero_table_t;
 145:Drivers/CMSIS/Include/cmsis_gcc.h ****   
ARM GAS  C:\Users\W_LINU~1\AppData\Local\Temp\ccSgbE3b.s 			page 11


 146:Drivers/CMSIS/Include/cmsis_gcc.h ****   extern const __copy_table_t __copy_table_start__;
 147:Drivers/CMSIS/Include/cmsis_gcc.h ****   extern const __copy_table_t __copy_table_end__;
 148:Drivers/CMSIS/Include/cmsis_gcc.h ****   extern const __zero_table_t __zero_table_start__;
 149:Drivers/CMSIS/Include/cmsis_gcc.h ****   extern const __zero_table_t __zero_table_end__;
 150:Drivers/CMSIS/Include/cmsis_gcc.h **** 
 151:Drivers/CMSIS/Include/cmsis_gcc.h ****   for (__copy_table_t const* pTable = &__copy_table_start__; pTable < &__copy_table_end__; ++pTable
 152:Drivers/CMSIS/Include/cmsis_gcc.h ****     for(uint32_t i=0u; i<pTable->wlen; ++i) {
 153:Drivers/CMSIS/Include/cmsis_gcc.h ****       pTable->dest[i] = pTable->src[i];
 154:Drivers/CMSIS/Include/cmsis_gcc.h ****     }
 155:Drivers/CMSIS/Include/cmsis_gcc.h ****   }
 156:Drivers/CMSIS/Include/cmsis_gcc.h ****  
 157:Drivers/CMSIS/Include/cmsis_gcc.h ****   for (__zero_table_t const* pTable = &__zero_table_start__; pTable < &__zero_table_end__; ++pTable
 158:Drivers/CMSIS/Include/cmsis_gcc.h ****     for(uint32_t i=0u; i<pTable->wlen; ++i) {
 159:Drivers/CMSIS/Include/cmsis_gcc.h ****       pTable->dest[i] = 0u;
 160:Drivers/CMSIS/Include/cmsis_gcc.h ****     }
 161:Drivers/CMSIS/Include/cmsis_gcc.h ****   }
 162:Drivers/CMSIS/Include/cmsis_gcc.h ****  
 163:Drivers/CMSIS/Include/cmsis_gcc.h ****   _start();
 164:Drivers/CMSIS/Include/cmsis_gcc.h **** }
 165:Drivers/CMSIS/Include/cmsis_gcc.h ****   
 166:Drivers/CMSIS/Include/cmsis_gcc.h **** #define __PROGRAM_START           __cmsis_start
 167:Drivers/CMSIS/Include/cmsis_gcc.h **** #endif
 168:Drivers/CMSIS/Include/cmsis_gcc.h **** 
 169:Drivers/CMSIS/Include/cmsis_gcc.h **** #ifndef __INITIAL_SP
 170:Drivers/CMSIS/Include/cmsis_gcc.h **** #define __INITIAL_SP              __StackTop
 171:Drivers/CMSIS/Include/cmsis_gcc.h **** #endif
 172:Drivers/CMSIS/Include/cmsis_gcc.h **** 
 173:Drivers/CMSIS/Include/cmsis_gcc.h **** #ifndef __STACK_LIMIT
 174:Drivers/CMSIS/Include/cmsis_gcc.h **** #define __STACK_LIMIT             __StackLimit
 175:Drivers/CMSIS/Include/cmsis_gcc.h **** #endif
 176:Drivers/CMSIS/Include/cmsis_gcc.h **** 
 177:Drivers/CMSIS/Include/cmsis_gcc.h **** #ifndef __VECTOR_TABLE
 178:Drivers/CMSIS/Include/cmsis_gcc.h **** #define __VECTOR_TABLE            __Vectors
 179:Drivers/CMSIS/Include/cmsis_gcc.h **** #endif
 180:Drivers/CMSIS/Include/cmsis_gcc.h **** 
 181:Drivers/CMSIS/Include/cmsis_gcc.h **** #ifndef __VECTOR_TABLE_ATTRIBUTE
 182:Drivers/CMSIS/Include/cmsis_gcc.h **** #define __VECTOR_TABLE_ATTRIBUTE  __attribute((used, section(".vectors")))
 183:Drivers/CMSIS/Include/cmsis_gcc.h **** #endif
 184:Drivers/CMSIS/Include/cmsis_gcc.h **** 
 185:Drivers/CMSIS/Include/cmsis_gcc.h **** /* ###########################  Core Function Access  ########################### */
 186:Drivers/CMSIS/Include/cmsis_gcc.h **** /** \ingroup  CMSIS_Core_FunctionInterface
 187:Drivers/CMSIS/Include/cmsis_gcc.h ****     \defgroup CMSIS_Core_RegAccFunctions CMSIS Core Register Access Functions
 188:Drivers/CMSIS/Include/cmsis_gcc.h ****   @{
 189:Drivers/CMSIS/Include/cmsis_gcc.h ****  */
 190:Drivers/CMSIS/Include/cmsis_gcc.h **** 
 191:Drivers/CMSIS/Include/cmsis_gcc.h **** /**
 192:Drivers/CMSIS/Include/cmsis_gcc.h ****   \brief   Enable IRQ Interrupts
 193:Drivers/CMSIS/Include/cmsis_gcc.h ****   \details Enables IRQ interrupts by clearing the I-bit in the CPSR.
 194:Drivers/CMSIS/Include/cmsis_gcc.h ****            Can only be executed in Privileged modes.
 195:Drivers/CMSIS/Include/cmsis_gcc.h ****  */
 196:Drivers/CMSIS/Include/cmsis_gcc.h **** __STATIC_FORCEINLINE void __enable_irq(void)
 197:Drivers/CMSIS/Include/cmsis_gcc.h **** {
 198:Drivers/CMSIS/Include/cmsis_gcc.h ****   __ASM volatile ("cpsie i" : : : "memory");
 199:Drivers/CMSIS/Include/cmsis_gcc.h **** }
 200:Drivers/CMSIS/Include/cmsis_gcc.h **** 
 201:Drivers/CMSIS/Include/cmsis_gcc.h **** 
 202:Drivers/CMSIS/Include/cmsis_gcc.h **** /**
ARM GAS  C:\Users\W_LINU~1\AppData\Local\Temp\ccSgbE3b.s 			page 12


 203:Drivers/CMSIS/Include/cmsis_gcc.h ****   \brief   Disable IRQ Interrupts
 204:Drivers/CMSIS/Include/cmsis_gcc.h ****   \details Disables IRQ interrupts by setting the I-bit in the CPSR.
 205:Drivers/CMSIS/Include/cmsis_gcc.h ****            Can only be executed in Privileged modes.
 206:Drivers/CMSIS/Include/cmsis_gcc.h ****  */
 207:Drivers/CMSIS/Include/cmsis_gcc.h **** __STATIC_FORCEINLINE void __disable_irq(void)
 173              		.loc 2 207 27 view .LVU36
 174              	.LBB6:
 208:Drivers/CMSIS/Include/cmsis_gcc.h **** {
 209:Drivers/CMSIS/Include/cmsis_gcc.h ****   __ASM volatile ("cpsid i" : : : "memory");
 175              		.loc 2 209 3 view .LVU37
 176              		.syntax divided
 177              	@ 209 "Drivers/CMSIS/Include/cmsis_gcc.h" 1
 178 0000 72B6     		cpsid i
 179              	@ 0 "" 2
 180              		.thumb
 181              		.syntax unified
 182              	.L12:
 183              	.LBE6:
 184              	.LBE5:
 232:Core/Src/main.c ****   while (1)
 185              		.loc 1 232 3 discriminator 1 view .LVU38
 233:Core/Src/main.c ****   {
 234:Core/Src/main.c ****   }
 186              		.loc 1 234 3 discriminator 1 view .LVU39
 232:Core/Src/main.c ****   while (1)
 187              		.loc 1 232 9 discriminator 1 view .LVU40
 188 0002 FEE7     		b	.L12
 189              		.cfi_endproc
 190              	.LFE296:
 192              		.section	.text.SystemClock_Config,"ax",%progbits
 193              		.align	1
 194              		.global	SystemClock_Config
 195              		.syntax unified
 196              		.code	16
 197              		.thumb_func
 199              	SystemClock_Config:
 200              	.LFB294:
 163:Core/Src/main.c ****   RCC_OscInitTypeDef RCC_OscInitStruct = {0};
 201              		.loc 1 163 1 view -0
 202              		.cfi_startproc
 203              		@ args = 0, pretend = 0, frame = 72
 204              		@ frame_needed = 0, uses_anonymous_args = 0
 205 0000 00B5     		push	{lr}
 206              	.LCFI1:
 207              		.cfi_def_cfa_offset 4
 208              		.cfi_offset 14, -4
 209 0002 93B0     		sub	sp, sp, #76
 210              	.LCFI2:
 211              		.cfi_def_cfa_offset 80
 164:Core/Src/main.c ****   RCC_ClkInitTypeDef RCC_ClkInitStruct = {0};
 212              		.loc 1 164 3 view .LVU42
 164:Core/Src/main.c ****   RCC_ClkInitTypeDef RCC_ClkInitStruct = {0};
 213              		.loc 1 164 22 is_stmt 0 view .LVU43
 214 0004 3422     		movs	r2, #52
 215 0006 0021     		movs	r1, #0
 216 0008 05A8     		add	r0, sp, #20
 217 000a FFF7FEFF 		bl	memset
ARM GAS  C:\Users\W_LINU~1\AppData\Local\Temp\ccSgbE3b.s 			page 13


 218              	.LVL10:
 165:Core/Src/main.c **** 
 219              		.loc 1 165 3 is_stmt 1 view .LVU44
 165:Core/Src/main.c **** 
 220              		.loc 1 165 22 is_stmt 0 view .LVU45
 221 000e 1022     		movs	r2, #16
 222 0010 0021     		movs	r1, #0
 223 0012 01A8     		add	r0, sp, #4
 224 0014 FFF7FEFF 		bl	memset
 225              	.LVL11:
 169:Core/Src/main.c **** 
 226              		.loc 1 169 3 is_stmt 1 view .LVU46
 227 0018 8020     		movs	r0, #128
 228 001a 8000     		lsls	r0, r0, #2
 229 001c FFF7FEFF 		bl	HAL_PWREx_ControlVoltageScaling
 230              	.LVL12:
 174:Core/Src/main.c ****   RCC_OscInitStruct.HSEState = RCC_HSE_ON;
 231              		.loc 1 174 3 view .LVU47
 174:Core/Src/main.c ****   RCC_OscInitStruct.HSEState = RCC_HSE_ON;
 232              		.loc 1 174 36 is_stmt 0 view .LVU48
 233 0020 0123     		movs	r3, #1
 234 0022 0593     		str	r3, [sp, #20]
 175:Core/Src/main.c ****   RCC_OscInitStruct.PLL.PLLState = RCC_PLL_ON;
 235              		.loc 1 175 3 is_stmt 1 view .LVU49
 175:Core/Src/main.c ****   RCC_OscInitStruct.PLL.PLLState = RCC_PLL_ON;
 236              		.loc 1 175 30 is_stmt 0 view .LVU50
 237 0024 8023     		movs	r3, #128
 238 0026 5B02     		lsls	r3, r3, #9
 239 0028 0693     		str	r3, [sp, #24]
 176:Core/Src/main.c ****   RCC_OscInitStruct.PLL.PLLSource = RCC_PLLSOURCE_HSE;
 240              		.loc 1 176 3 is_stmt 1 view .LVU51
 176:Core/Src/main.c ****   RCC_OscInitStruct.PLL.PLLSource = RCC_PLLSOURCE_HSE;
 241              		.loc 1 176 34 is_stmt 0 view .LVU52
 242 002a 0223     		movs	r3, #2
 243 002c 0C93     		str	r3, [sp, #48]
 177:Core/Src/main.c ****   RCC_OscInitStruct.PLL.PLLM = RCC_PLLM_DIV1;
 244              		.loc 1 177 3 is_stmt 1 view .LVU53
 177:Core/Src/main.c ****   RCC_OscInitStruct.PLL.PLLM = RCC_PLLM_DIV1;
 245              		.loc 1 177 35 is_stmt 0 view .LVU54
 246 002e 0133     		adds	r3, r3, #1
 247 0030 0D93     		str	r3, [sp, #52]
 178:Core/Src/main.c ****   RCC_OscInitStruct.PLL.PLLN = 16;
 248              		.loc 1 178 3 is_stmt 1 view .LVU55
 178:Core/Src/main.c ****   RCC_OscInitStruct.PLL.PLLN = 16;
 249              		.loc 1 178 30 is_stmt 0 view .LVU56
 250 0032 0023     		movs	r3, #0
 251 0034 0E93     		str	r3, [sp, #56]
 179:Core/Src/main.c ****   RCC_OscInitStruct.PLL.PLLP = RCC_PLLP_DIV2;
 252              		.loc 1 179 3 is_stmt 1 view .LVU57
 179:Core/Src/main.c ****   RCC_OscInitStruct.PLL.PLLP = RCC_PLLP_DIV2;
 253              		.loc 1 179 30 is_stmt 0 view .LVU58
 254 0036 1033     		adds	r3, r3, #16
 255 0038 0F93     		str	r3, [sp, #60]
 180:Core/Src/main.c ****   RCC_OscInitStruct.PLL.PLLR = RCC_PLLR_DIV2;
 256              		.loc 1 180 3 is_stmt 1 view .LVU59
 180:Core/Src/main.c ****   RCC_OscInitStruct.PLL.PLLR = RCC_PLLR_DIV2;
 257              		.loc 1 180 30 is_stmt 0 view .LVU60
ARM GAS  C:\Users\W_LINU~1\AppData\Local\Temp\ccSgbE3b.s 			page 14


 258 003a 8023     		movs	r3, #128
 259 003c 9B02     		lsls	r3, r3, #10
 260 003e 1093     		str	r3, [sp, #64]
 181:Core/Src/main.c ****   if (HAL_RCC_OscConfig(&RCC_OscInitStruct) != HAL_OK)
 261              		.loc 1 181 3 is_stmt 1 view .LVU61
 181:Core/Src/main.c ****   if (HAL_RCC_OscConfig(&RCC_OscInitStruct) != HAL_OK)
 262              		.loc 1 181 30 is_stmt 0 view .LVU62
 263 0040 8023     		movs	r3, #128
 264 0042 9B05     		lsls	r3, r3, #22
 265 0044 1193     		str	r3, [sp, #68]
 182:Core/Src/main.c ****   {
 266              		.loc 1 182 3 is_stmt 1 view .LVU63
 182:Core/Src/main.c ****   {
 267              		.loc 1 182 7 is_stmt 0 view .LVU64
 268 0046 05A8     		add	r0, sp, #20
 269 0048 FFF7FEFF 		bl	HAL_RCC_OscConfig
 270              	.LVL13:
 182:Core/Src/main.c ****   {
 271              		.loc 1 182 6 view .LVU65
 272 004c 0028     		cmp	r0, #0
 273 004e 0ED1     		bne	.L16
 189:Core/Src/main.c ****                               |RCC_CLOCKTYPE_PCLK1;
 274              		.loc 1 189 3 is_stmt 1 view .LVU66
 189:Core/Src/main.c ****                               |RCC_CLOCKTYPE_PCLK1;
 275              		.loc 1 189 31 is_stmt 0 view .LVU67
 276 0050 0723     		movs	r3, #7
 277 0052 0193     		str	r3, [sp, #4]
 191:Core/Src/main.c ****   RCC_ClkInitStruct.AHBCLKDivider = RCC_SYSCLK_DIV1;
 278              		.loc 1 191 3 is_stmt 1 view .LVU68
 191:Core/Src/main.c ****   RCC_ClkInitStruct.AHBCLKDivider = RCC_SYSCLK_DIV1;
 279              		.loc 1 191 34 is_stmt 0 view .LVU69
 280 0054 053B     		subs	r3, r3, #5
 281 0056 0293     		str	r3, [sp, #8]
 192:Core/Src/main.c ****   RCC_ClkInitStruct.APB1CLKDivider = RCC_HCLK_DIV1;
 282              		.loc 1 192 3 is_stmt 1 view .LVU70
 192:Core/Src/main.c ****   RCC_ClkInitStruct.APB1CLKDivider = RCC_HCLK_DIV1;
 283              		.loc 1 192 35 is_stmt 0 view .LVU71
 284 0058 0023     		movs	r3, #0
 285 005a 0393     		str	r3, [sp, #12]
 193:Core/Src/main.c **** 
 286              		.loc 1 193 3 is_stmt 1 view .LVU72
 193:Core/Src/main.c **** 
 287              		.loc 1 193 36 is_stmt 0 view .LVU73
 288 005c 0493     		str	r3, [sp, #16]
 195:Core/Src/main.c ****   {
 289              		.loc 1 195 3 is_stmt 1 view .LVU74
 195:Core/Src/main.c ****   {
 290              		.loc 1 195 7 is_stmt 0 view .LVU75
 291 005e 0221     		movs	r1, #2
 292 0060 01A8     		add	r0, sp, #4
 293 0062 FFF7FEFF 		bl	HAL_RCC_ClockConfig
 294              	.LVL14:
 195:Core/Src/main.c ****   {
 295              		.loc 1 195 6 view .LVU76
 296 0066 0028     		cmp	r0, #0
 297 0068 03D1     		bne	.L17
 199:Core/Src/main.c **** 
ARM GAS  C:\Users\W_LINU~1\AppData\Local\Temp\ccSgbE3b.s 			page 15


 298              		.loc 1 199 1 view .LVU77
 299 006a 13B0     		add	sp, sp, #76
 300              		@ sp needed
 301 006c 00BD     		pop	{pc}
 302              	.L16:
 184:Core/Src/main.c ****   }
 303              		.loc 1 184 5 is_stmt 1 view .LVU78
 304 006e FFF7FEFF 		bl	Error_Handler
 305              	.LVL15:
 306              	.L17:
 197:Core/Src/main.c ****   }
 307              		.loc 1 197 5 view .LVU79
 308 0072 FFF7FEFF 		bl	Error_Handler
 309              	.LVL16:
 310              		.cfi_endproc
 311              	.LFE294:
 313              		.section	.rodata.main.str1.4,"aMS",%progbits,1
 314              		.align	2
 315              	.LC12:
 316 0000 4E756D62 		.ascii	"Numberic Data Detected!\015\000"
 316      65726963 
 316      20446174 
 316      61204465 
 316      74656374 
 317 0019 000000   		.align	2
 318              	.LC14:
 319 001c 54657874 		.ascii	"Text Data Detected!\015\000"
 319      20446174 
 319      61204465 
 319      74656374 
 319      6564210D 
 320              		.section	.text.main,"ax",%progbits
 321              		.align	1
 322              		.global	main
 323              		.syntax unified
 324              		.code	16
 325              		.thumb_func
 327              	main:
 328              	.LFB293:
  87:Core/Src/main.c ****   /* USER CODE BEGIN 1 */
 329              		.loc 1 87 1 view -0
 330              		.cfi_startproc
 331              		@ Volatile: function does not return.
 332              		@ args = 0, pretend = 0, frame = 48
 333              		@ frame_needed = 0, uses_anonymous_args = 0
 334 0000 F0B5     		push	{r4, r5, r6, r7, lr}
 335              	.LCFI3:
 336              		.cfi_def_cfa_offset 20
 337              		.cfi_offset 4, -20
 338              		.cfi_offset 5, -16
 339              		.cfi_offset 6, -12
 340              		.cfi_offset 7, -8
 341              		.cfi_offset 14, -4
 342 0002 97B0     		sub	sp, sp, #92
 343              	.LCFI4:
 344              		.cfi_def_cfa_offset 112
  95:Core/Src/main.c **** 
ARM GAS  C:\Users\W_LINU~1\AppData\Local\Temp\ccSgbE3b.s 			page 16


 345              		.loc 1 95 3 view .LVU81
 346 0004 FFF7FEFF 		bl	HAL_Init
 347              	.LVL17:
 102:Core/Src/main.c **** 
 348              		.loc 1 102 3 view .LVU82
 349 0008 FFF7FEFF 		bl	SystemClock_Config
 350              	.LVL18:
 109:Core/Src/main.c ****   MX_DMA_Init();
 351              		.loc 1 109 3 view .LVU83
 352 000c FFF7FEFF 		bl	MX_GPIO_Init
 353              	.LVL19:
 110:Core/Src/main.c ****   MX_SPI1_Init();
 354              		.loc 1 110 3 view .LVU84
 355 0010 FFF7FEFF 		bl	MX_DMA_Init
 356              	.LVL20:
 111:Core/Src/main.c ****   MX_USART1_UART_Init();
 357              		.loc 1 111 3 view .LVU85
 358 0014 FFF7FEFF 		bl	MX_SPI1_Init
 359              	.LVL21:
 112:Core/Src/main.c ****   /* USER CODE BEGIN 2 */
 360              		.loc 1 112 3 view .LVU86
 361 0018 FFF7FEFF 		bl	MX_USART1_UART_Init
 362              	.LVL22:
 114:Core/Src/main.c ****   HAL_UART_Receive_DMA(&huart1,&rxChar,1);
 363              		.loc 1 114 2 view .LVU87
 364 001c FFF7FEFF 		bl	SI446x_Init
 365              	.LVL23:
 115:Core/Src/main.c **** 
 366              		.loc 1 115 3 view .LVU88
 367 0020 3749     		ldr	r1, .L28
 368 0022 3848     		ldr	r0, .L28+4
 369 0024 0122     		movs	r2, #1
 370 0026 FFF7FEFF 		bl	HAL_UART_Receive_DMA
 371              	.LVL24:
 372 002a 55E0     		b	.L20
 373              	.L21:
 124:Core/Src/main.c **** 
 374              		.loc 1 124 7 view .LVU89
 375 002c 3648     		ldr	r0, .L28+8
 376 002e 374C     		ldr	r4, .L28+12
 377 0030 0300     		movs	r3, r0
 378 0032 0833     		adds	r3, r3, #8
 379 0034 6A46     		mov	r2, sp
 380 0036 62CB     		ldmia	r3!, {r1, r5, r6}
 381 0038 62C2     		stmia	r2!, {r1, r5, r6}
 382 003a 62CB     		ldmia	r3!, {r1, r5, r6}
 383 003c 62C2     		stmia	r2!, {r1, r5, r6}
 384 003e 62CB     		ldmia	r3!, {r1, r5, r6}
 385 0040 62C2     		stmia	r2!, {r1, r5, r6}
 386 0042 1B68     		ldr	r3, [r3]
 387 0044 1360     		str	r3, [r2]
 388 0046 0268     		ldr	r2, [r0]
 389 0048 4368     		ldr	r3, [r0, #4]
 390 004a 2100     		movs	r1, r4
 391 004c 0AA8     		add	r0, sp, #40
 392 004e FFF7FEFF 		bl	prepare_POCSAG_Data
 393              	.LVL25:
ARM GAS  C:\Users\W_LINU~1\AppData\Local\Temp\ccSgbE3b.s 			page 17


 126:Core/Src/main.c ****         printf("Numberic Data Detected!\r\n");
 394              		.loc 1 126 7 view .LVU90
 126:Core/Src/main.c ****         printf("Numberic Data Detected!\r\n");
 395              		.loc 1 126 20 is_stmt 0 view .LVU91
 396 0052 E37A     		ldrb	r3, [r4, #11]
 126:Core/Src/main.c ****         printf("Numberic Data Detected!\r\n");
 397              		.loc 1 126 9 view .LVU92
 398 0054 4E2B     		cmp	r3, #78
 399 0056 4AD0     		beq	.L26
 400              	.L23:
 131:Core/Src/main.c ****         printf("Text Data Detected!\r\n");
 401              		.loc 1 131 7 is_stmt 1 view .LVU93
 131:Core/Src/main.c ****         printf("Text Data Detected!\r\n");
 402              		.loc 1 131 20 is_stmt 0 view .LVU94
 403 0058 2C4B     		ldr	r3, .L28+12
 404 005a DB7A     		ldrb	r3, [r3, #11]
 131:Core/Src/main.c ****         printf("Text Data Detected!\r\n");
 405              		.loc 1 131 9 view .LVU95
 406 005c 542B     		cmp	r3, #84
 407 005e 4AD0     		beq	.L27
 408              	.L24:
 135:Core/Src/main.c **** 
 409              		.loc 1 135 7 is_stmt 1 view .LVU96
 135:Core/Src/main.c **** 
 410              		.loc 1 135 13 is_stmt 0 view .LVU97
 411 0060 294D     		ldr	r5, .L28+8
 412 0062 0AAC     		add	r4, sp, #40
 413 0064 2949     		ldr	r1, .L28+12
 414 0066 2B00     		movs	r3, r5
 415 0068 0833     		adds	r3, r3, #8
 416 006a 6A46     		mov	r2, sp
 417 006c C1CB     		ldmia	r3!, {r0, r6, r7}
 418 006e C1C2     		stmia	r2!, {r0, r6, r7}
 419 0070 C1CB     		ldmia	r3!, {r0, r6, r7}
 420 0072 C1C2     		stmia	r2!, {r0, r6, r7}
 421 0074 C1CB     		ldmia	r3!, {r0, r6, r7}
 422 0076 C1C2     		stmia	r2!, {r0, r6, r7}
 423 0078 1B68     		ldr	r3, [r3]
 424 007a 1360     		str	r3, [r2]
 425 007c 2A68     		ldr	r2, [r5]
 426 007e 6B68     		ldr	r3, [r5, #4]
 427 0080 2000     		movs	r0, r4
 428 0082 FFF7FEFF 		bl	prepare_POCSAG_Data
 429              	.LVL26:
 430 0086 2B00     		movs	r3, r5
 431 0088 2000     		movs	r0, r4
 432 008a 16C8     		ldmia	r0!, {r1, r2, r4}
 433 008c 16C3     		stmia	r3!, {r1, r2, r4}
 434 008e 16C8     		ldmia	r0!, {r1, r2, r4}
 435 0090 16C3     		stmia	r3!, {r1, r2, r4}
 436 0092 16C8     		ldmia	r0!, {r1, r2, r4}
 437 0094 16C3     		stmia	r3!, {r1, r2, r4}
 438 0096 16C8     		ldmia	r0!, {r1, r2, r4}
 439 0098 16C3     		stmia	r3!, {r1, r2, r4}
 137:Core/Src/main.c ****       Pager.Batch20pt,Pager.InvertOpt);
 440              		.loc 1 137 7 is_stmt 1 view .LVU98
 137:Core/Src/main.c ****       Pager.Batch20pt,Pager.InvertOpt);
ARM GAS  C:\Users\W_LINU~1\AppData\Local\Temp\ccSgbE3b.s 			page 18


 441              		.loc 1 137 39 is_stmt 0 view .LVU99
 442 009a 2E23     		movs	r3, #46
 443 009c EB56     		ldrsb	r3, [r5, r3]
 444 009e 6A1D     		adds	r2, r5, #5
 445 00a0 0421     		movs	r1, #4
 446 00a2 6956     		ldrsb	r1, [r5, r1]
 447 00a4 2868     		ldr	r0, [r5]
 448 00a6 2F24     		movs	r4, #47
 449 00a8 2C5D     		ldrb	r4, [r5, r4]
 450 00aa 0094     		str	r4, [sp]
 451 00ac FFF7FEFF 		bl	POCSAG_MakeCodeWords
 452              	.LVL27:
 137:Core/Src/main.c ****       Pager.Batch20pt,Pager.InvertOpt);
 453              		.loc 1 137 38 view .LVU100
 454 00b0 174B     		ldr	r3, .L28+16
 455 00b2 1870     		strb	r0, [r3]
 140:Core/Src/main.c ****         SI446x_Send_Packet((uint8_t*)POCSAG_Batch1,64,0,0);
 456              		.loc 1 140 7 is_stmt 1 view .LVU101
 140:Core/Src/main.c ****         SI446x_Send_Packet((uint8_t*)POCSAG_Batch1,64,0,0);
 457              		.loc 1 140 9 is_stmt 0 view .LVU102
 458 00b4 0028     		cmp	r0, #0
 459 00b6 05DD     		ble	.L25
 141:Core/Src/main.c ****       }
 460              		.loc 1 141 9 is_stmt 1 view .LVU103
 461 00b8 1648     		ldr	r0, .L28+20
 462 00ba 0023     		movs	r3, #0
 463 00bc 0022     		movs	r2, #0
 464 00be 4021     		movs	r1, #64
 465 00c0 FFF7FEFF 		bl	SI446x_Send_Packet
 466              	.LVL28:
 467              	.L25:
 143:Core/Src/main.c ****      // SI446x_Send_Packet((uint8_t*)TxBuff,sizeof(TxBuff),0,0);
 468              		.loc 1 143 7 view .LVU104
 469 00c4 1348     		ldr	r0, .L28+20
 470 00c6 4022     		movs	r2, #64
 471 00c8 0021     		movs	r1, #0
 472 00ca FFF7FEFF 		bl	memset
 473              	.LVL29:
 147:Core/Src/main.c ****       rxOKFlag[3]=0;
 474              		.loc 1 147 7 view .LVU105
 147:Core/Src/main.c ****       rxOKFlag[3]=0;
 475              		.loc 1 147 13 is_stmt 0 view .LVU106
 476 00ce 124B     		ldr	r3, .L28+24
 477 00d0 0022     		movs	r2, #0
 478 00d2 1A70     		strb	r2, [r3]
 148:Core/Src/main.c ****     }
 479              		.loc 1 148 7 is_stmt 1 view .LVU107
 148:Core/Src/main.c ****     }
 480              		.loc 1 148 18 is_stmt 0 view .LVU108
 481 00d4 114B     		ldr	r3, .L28+28
 482 00d6 DA70     		strb	r2, [r3, #3]
 483              	.L20:
 121:Core/Src/main.c ****   {
 484              		.loc 1 121 3 is_stmt 1 view .LVU109
 123:Core/Src/main.c ****       prepare_POCSAG_Data(UartBuffer,Pager);
 485              		.loc 1 123 5 view .LVU110
 123:Core/Src/main.c ****       prepare_POCSAG_Data(UartBuffer,Pager);
ARM GAS  C:\Users\W_LINU~1\AppData\Local\Temp\ccSgbE3b.s 			page 19


 486              		.loc 1 123 34 is_stmt 0 view .LVU111
 487 00d8 104B     		ldr	r3, .L28+28
 488 00da DB78     		ldrb	r3, [r3, #3]
 123:Core/Src/main.c ****       prepare_POCSAG_Data(UartBuffer,Pager);
 489              		.loc 1 123 7 view .LVU112
 490 00dc 012B     		cmp	r3, #1
 491 00de FBD1     		bne	.L20
 123:Core/Src/main.c ****       prepare_POCSAG_Data(UartBuffer,Pager);
 492              		.loc 1 123 53 discriminator 1 view .LVU113
 493 00e0 0A4B     		ldr	r3, .L28+12
 494 00e2 DB7A     		ldrb	r3, [r3, #11]
 123:Core/Src/main.c ****       prepare_POCSAG_Data(UartBuffer,Pager);
 495              		.loc 1 123 40 discriminator 1 view .LVU114
 496 00e4 4E2B     		cmp	r3, #78
 497 00e6 A1D0     		beq	.L21
 123:Core/Src/main.c ****       prepare_POCSAG_Data(UartBuffer,Pager);
 498              		.loc 1 123 71 discriminator 2 view .LVU115
 499 00e8 542B     		cmp	r3, #84
 500 00ea F5D1     		bne	.L20
 501 00ec 9EE7     		b	.L21
 502              	.L26:
 127:Core/Src/main.c ****         
 503              		.loc 1 127 9 is_stmt 1 view .LVU116
 504 00ee 0C48     		ldr	r0, .L28+32
 505 00f0 FFF7FEFF 		bl	puts
 506              	.LVL30:
 507 00f4 B0E7     		b	.L23
 508              	.L27:
 132:Core/Src/main.c ****       }
 509              		.loc 1 132 9 view .LVU117
 510 00f6 0B48     		ldr	r0, .L28+36
 511 00f8 FFF7FEFF 		bl	puts
 512              	.LVL31:
 513 00fc B0E7     		b	.L24
 514              	.L29:
 515 00fe C046     		.align	2
 516              	.L28:
 517 0100 00000000 		.word	rxChar
 518 0104 00000000 		.word	huart1
 519 0108 00000000 		.word	Pager
 520 010c 00000000 		.word	UartBuffer
 521 0110 00000000 		.word	POCSAG_Message_Generated_Status
 522 0114 00000000 		.word	POCSAG_Batch1
 523 0118 00000000 		.word	txSize
 524 011c 00000000 		.word	rxOKFlag
 525 0120 00000000 		.word	.LC12
 526 0124 1C000000 		.word	.LC14
 527              		.cfi_endproc
 528              	.LFE293:
 530              		.global	POCSAG_Message_Generated_Status
 531              		.section	.bss.POCSAG_Message_Generated_Status,"aw",%nobits
 534              	POCSAG_Message_Generated_Status:
 535 0000 00       		.space	1
 536              		.global	Pager
 537              		.section	.bss.Pager,"aw",%nobits
 538              		.align	2
 541              	Pager:
ARM GAS  C:\Users\W_LINU~1\AppData\Local\Temp\ccSgbE3b.s 			page 20


 542 0000 00000000 		.space	48
 542      00000000 
 542      00000000 
 542      00000000 
 542      00000000 
 543              		.global	UartBuffer
 544              		.section	.bss.UartBuffer,"aw",%nobits
 545              		.align	2
 548              	UartBuffer:
 549 0000 00000000 		.space	256
 549      00000000 
 549      00000000 
 549      00000000 
 549      00000000 
 550              		.global	rxOKFlag
 551              		.section	.bss.rxOKFlag,"aw",%nobits
 552              		.align	2
 555              	rxOKFlag:
 556 0000 00000000 		.space	4
 557              		.global	rxChar
 558              		.section	.bss.rxChar,"aw",%nobits
 561              	rxChar:
 562 0000 00       		.space	1
 563              		.global	txSize
 564              		.section	.bss.txSize,"aw",%nobits
 567              	txSize:
 568 0000 00       		.space	1
 569              		.global	TxBuffer
 570              		.section	.bss.TxBuffer,"aw",%nobits
 571              		.align	2
 574              	TxBuffer:
 575 0000 00000000 		.space	800
 575      00000000 
 575      00000000 
 575      00000000 
 575      00000000 
 576              		.global	strLength
 577              		.section	.bss.strLength,"aw",%nobits
 580              	strLength:
 581 0000 00       		.space	1
 582              		.global	i
 583              		.section	.bss.i,"aw",%nobits
 584              		.align	1
 587              	i:
 588 0000 0000     		.space	2
 589              		.global	g_UartRxBuffer
 590              		.section	.bss.g_UartRxBuffer,"aw",%nobits
 591              		.align	2
 594              	g_UartRxBuffer:
 595 0000 00000000 		.space	400
 595      00000000 
 595      00000000 
 595      00000000 
 595      00000000 
 596              		.text
 597              	.Letext0:
 598              		.file 3 "f:\\vscode-for-stm32\\gcc\\12.2-mpacbti-bet1\\arm-none-eabi\\include\\machine\\_default_t
ARM GAS  C:\Users\W_LINU~1\AppData\Local\Temp\ccSgbE3b.s 			page 21


 599              		.file 4 "f:\\vscode-for-stm32\\gcc\\12.2-mpacbti-bet1\\arm-none-eabi\\include\\sys\\_stdint.h"
 600              		.file 5 "Drivers/CMSIS/Device/ST/STM32G0xx/Include/stm32g030xx.h"
 601              		.file 6 "f:\\vscode-for-stm32\\gcc\\12.2-mpacbti-bet1\\lib\\gcc\\arm-none-eabi\\12.2.0\\include\\s
 602              		.file 7 "Drivers/STM32G0xx_HAL_Driver/Inc/stm32g0xx_hal_def.h"
 603              		.file 8 "Drivers/STM32G0xx_HAL_Driver/Inc/stm32g0xx_hal_rcc.h"
 604              		.file 9 "Drivers/STM32G0xx_HAL_Driver/Inc/stm32g0xx_hal_dma.h"
 605              		.file 10 "Drivers/STM32G0xx_HAL_Driver/Inc/stm32g0xx_hal_uart.h"
 606              		.file 11 "Drivers/POCSAG/POCSAG_Generate.h"
 607              		.file 12 "Core/Inc/usart.h"
 608              		.file 13 "f:\\vscode-for-stm32\\gcc\\12.2-mpacbti-bet1\\arm-none-eabi\\include\\stdio.h"
 609              		.file 14 "f:\\vscode-for-stm32\\gcc\\12.2-mpacbti-bet1\\arm-none-eabi\\include\\string.h"
 610              		.file 15 "Drivers/STM32G0xx_HAL_Driver/Inc/stm32g0xx_hal_pwr_ex.h"
 611              		.file 16 "Core/Inc/si446x.h"
 612              		.file 17 "Core/Inc/spi.h"
 613              		.file 18 "Core/Inc/dma.h"
 614              		.file 19 "Core/Inc/gpio.h"
 615              		.file 20 "Drivers/STM32G0xx_HAL_Driver/Inc/stm32g0xx_ll_dma.h"
 616              		.file 21 "<built-in>"
 617              		.file 22 "Drivers/STM32G0xx_HAL_Driver/Inc/stm32g0xx_hal.h"
ARM GAS  C:\Users\W_LINU~1\AppData\Local\Temp\ccSgbE3b.s 			page 22

