ARM GAS  C:\Users\W_LINU~1\AppData\Local\Temp\ccQ78mwl.s 			page 1


   1              		.cpu cortex-m0plus
   2              		.arch armv6s-m
   3              		.fpu softvfp
   4              		.eabi_attribute 20, 1
   5              		.eabi_attribute 21, 1
   6              		.eabi_attribute 23, 3
   7              		.eabi_attribute 24, 1
   8              		.eabi_attribute 25, 1
   9              		.eabi_attribute 26, 1
  10              		.eabi_attribute 30, 1
  11              		.eabi_attribute 34, 0
  12              		.eabi_attribute 18, 4
  13              		.file	"stm32g0xx_hal_uart_ex.c"
  14              		.text
  15              	.Ltext0:
  16              		.cfi_sections	.debug_frame
  17              		.file 1 "Drivers/STM32G0xx_HAL_Driver/Src/stm32g0xx_hal_uart_ex.c"
  18              		.section	.text.UARTEx_Wakeup_AddressConfig,"ax",%progbits
  19              		.align	1
  20              		.syntax unified
  21              		.code	16
  22              		.thumb_func
  24              	UARTEx_Wakeup_AddressConfig:
  25              	.LVL0:
  26              	.LFB306:
   1:Drivers/STM32G0xx_HAL_Driver/Src/stm32g0xx_hal_uart_ex.c **** /**
   2:Drivers/STM32G0xx_HAL_Driver/Src/stm32g0xx_hal_uart_ex.c ****   ******************************************************************************
   3:Drivers/STM32G0xx_HAL_Driver/Src/stm32g0xx_hal_uart_ex.c ****   * @file    stm32g0xx_hal_uart_ex.c
   4:Drivers/STM32G0xx_HAL_Driver/Src/stm32g0xx_hal_uart_ex.c ****   * @author  MCD Application Team
   5:Drivers/STM32G0xx_HAL_Driver/Src/stm32g0xx_hal_uart_ex.c ****   * @brief   Extended UART HAL module driver.
   6:Drivers/STM32G0xx_HAL_Driver/Src/stm32g0xx_hal_uart_ex.c ****   *          This file provides firmware functions to manage the following extended
   7:Drivers/STM32G0xx_HAL_Driver/Src/stm32g0xx_hal_uart_ex.c ****   *          functionalities of the Universal Asynchronous Receiver Transmitter Peripheral (UART).
   8:Drivers/STM32G0xx_HAL_Driver/Src/stm32g0xx_hal_uart_ex.c ****   *           + Initialization and de-initialization functions
   9:Drivers/STM32G0xx_HAL_Driver/Src/stm32g0xx_hal_uart_ex.c ****   *           + Peripheral Control functions
  10:Drivers/STM32G0xx_HAL_Driver/Src/stm32g0xx_hal_uart_ex.c ****   *
  11:Drivers/STM32G0xx_HAL_Driver/Src/stm32g0xx_hal_uart_ex.c ****   *
  12:Drivers/STM32G0xx_HAL_Driver/Src/stm32g0xx_hal_uart_ex.c ****   ******************************************************************************
  13:Drivers/STM32G0xx_HAL_Driver/Src/stm32g0xx_hal_uart_ex.c ****   * @attention
  14:Drivers/STM32G0xx_HAL_Driver/Src/stm32g0xx_hal_uart_ex.c ****   *
  15:Drivers/STM32G0xx_HAL_Driver/Src/stm32g0xx_hal_uart_ex.c ****   * Copyright (c) 2018 STMicroelectronics.
  16:Drivers/STM32G0xx_HAL_Driver/Src/stm32g0xx_hal_uart_ex.c ****   * All rights reserved.
  17:Drivers/STM32G0xx_HAL_Driver/Src/stm32g0xx_hal_uart_ex.c ****   *
  18:Drivers/STM32G0xx_HAL_Driver/Src/stm32g0xx_hal_uart_ex.c ****   * This software is licensed under terms that can be found in the LICENSE file
  19:Drivers/STM32G0xx_HAL_Driver/Src/stm32g0xx_hal_uart_ex.c ****   * in the root directory of this software component.
  20:Drivers/STM32G0xx_HAL_Driver/Src/stm32g0xx_hal_uart_ex.c ****   * If no LICENSE file comes with this software, it is provided AS-IS.
  21:Drivers/STM32G0xx_HAL_Driver/Src/stm32g0xx_hal_uart_ex.c ****   *
  22:Drivers/STM32G0xx_HAL_Driver/Src/stm32g0xx_hal_uart_ex.c ****   ******************************************************************************
  23:Drivers/STM32G0xx_HAL_Driver/Src/stm32g0xx_hal_uart_ex.c ****   @verbatim
  24:Drivers/STM32G0xx_HAL_Driver/Src/stm32g0xx_hal_uart_ex.c ****   ==============================================================================
  25:Drivers/STM32G0xx_HAL_Driver/Src/stm32g0xx_hal_uart_ex.c ****                ##### UART peripheral extended features  #####
  26:Drivers/STM32G0xx_HAL_Driver/Src/stm32g0xx_hal_uart_ex.c ****   ==============================================================================
  27:Drivers/STM32G0xx_HAL_Driver/Src/stm32g0xx_hal_uart_ex.c **** 
  28:Drivers/STM32G0xx_HAL_Driver/Src/stm32g0xx_hal_uart_ex.c ****     (#) Declare a UART_HandleTypeDef handle structure.
  29:Drivers/STM32G0xx_HAL_Driver/Src/stm32g0xx_hal_uart_ex.c **** 
  30:Drivers/STM32G0xx_HAL_Driver/Src/stm32g0xx_hal_uart_ex.c ****     (#) For the UART RS485 Driver Enable mode, initialize the UART registers
  31:Drivers/STM32G0xx_HAL_Driver/Src/stm32g0xx_hal_uart_ex.c ****         by calling the HAL_RS485Ex_Init() API.
  32:Drivers/STM32G0xx_HAL_Driver/Src/stm32g0xx_hal_uart_ex.c **** 
ARM GAS  C:\Users\W_LINU~1\AppData\Local\Temp\ccQ78mwl.s 			page 2


  33:Drivers/STM32G0xx_HAL_Driver/Src/stm32g0xx_hal_uart_ex.c ****     (#) FIFO mode enabling/disabling and RX/TX FIFO threshold programming.
  34:Drivers/STM32G0xx_HAL_Driver/Src/stm32g0xx_hal_uart_ex.c **** 
  35:Drivers/STM32G0xx_HAL_Driver/Src/stm32g0xx_hal_uart_ex.c ****         -@- When UART operates in FIFO mode, FIFO mode must be enabled prior
  36:Drivers/STM32G0xx_HAL_Driver/Src/stm32g0xx_hal_uart_ex.c ****             starting RX/TX transfers. Also RX/TX FIFO thresholds must be
  37:Drivers/STM32G0xx_HAL_Driver/Src/stm32g0xx_hal_uart_ex.c ****             configured prior starting RX/TX transfers.
  38:Drivers/STM32G0xx_HAL_Driver/Src/stm32g0xx_hal_uart_ex.c **** 
  39:Drivers/STM32G0xx_HAL_Driver/Src/stm32g0xx_hal_uart_ex.c ****   @endverbatim
  40:Drivers/STM32G0xx_HAL_Driver/Src/stm32g0xx_hal_uart_ex.c ****   ******************************************************************************
  41:Drivers/STM32G0xx_HAL_Driver/Src/stm32g0xx_hal_uart_ex.c ****   */
  42:Drivers/STM32G0xx_HAL_Driver/Src/stm32g0xx_hal_uart_ex.c **** 
  43:Drivers/STM32G0xx_HAL_Driver/Src/stm32g0xx_hal_uart_ex.c **** /* Includes ------------------------------------------------------------------*/
  44:Drivers/STM32G0xx_HAL_Driver/Src/stm32g0xx_hal_uart_ex.c **** #include "stm32g0xx_hal.h"
  45:Drivers/STM32G0xx_HAL_Driver/Src/stm32g0xx_hal_uart_ex.c **** 
  46:Drivers/STM32G0xx_HAL_Driver/Src/stm32g0xx_hal_uart_ex.c **** /** @addtogroup STM32G0xx_HAL_Driver
  47:Drivers/STM32G0xx_HAL_Driver/Src/stm32g0xx_hal_uart_ex.c ****   * @{
  48:Drivers/STM32G0xx_HAL_Driver/Src/stm32g0xx_hal_uart_ex.c ****   */
  49:Drivers/STM32G0xx_HAL_Driver/Src/stm32g0xx_hal_uart_ex.c **** 
  50:Drivers/STM32G0xx_HAL_Driver/Src/stm32g0xx_hal_uart_ex.c **** /** @defgroup UARTEx UARTEx
  51:Drivers/STM32G0xx_HAL_Driver/Src/stm32g0xx_hal_uart_ex.c ****   * @brief UART Extended HAL module driver
  52:Drivers/STM32G0xx_HAL_Driver/Src/stm32g0xx_hal_uart_ex.c ****   * @{
  53:Drivers/STM32G0xx_HAL_Driver/Src/stm32g0xx_hal_uart_ex.c ****   */
  54:Drivers/STM32G0xx_HAL_Driver/Src/stm32g0xx_hal_uart_ex.c **** 
  55:Drivers/STM32G0xx_HAL_Driver/Src/stm32g0xx_hal_uart_ex.c **** #ifdef HAL_UART_MODULE_ENABLED
  56:Drivers/STM32G0xx_HAL_Driver/Src/stm32g0xx_hal_uart_ex.c **** 
  57:Drivers/STM32G0xx_HAL_Driver/Src/stm32g0xx_hal_uart_ex.c **** /* Private typedef -----------------------------------------------------------*/
  58:Drivers/STM32G0xx_HAL_Driver/Src/stm32g0xx_hal_uart_ex.c **** /* Private define ------------------------------------------------------------*/
  59:Drivers/STM32G0xx_HAL_Driver/Src/stm32g0xx_hal_uart_ex.c **** /** @defgroup UARTEX_Private_Constants UARTEx Private Constants
  60:Drivers/STM32G0xx_HAL_Driver/Src/stm32g0xx_hal_uart_ex.c ****   * @{
  61:Drivers/STM32G0xx_HAL_Driver/Src/stm32g0xx_hal_uart_ex.c ****   */
  62:Drivers/STM32G0xx_HAL_Driver/Src/stm32g0xx_hal_uart_ex.c **** /* UART RX FIFO depth */
  63:Drivers/STM32G0xx_HAL_Driver/Src/stm32g0xx_hal_uart_ex.c **** #define RX_FIFO_DEPTH 8U
  64:Drivers/STM32G0xx_HAL_Driver/Src/stm32g0xx_hal_uart_ex.c **** 
  65:Drivers/STM32G0xx_HAL_Driver/Src/stm32g0xx_hal_uart_ex.c **** /* UART TX FIFO depth */
  66:Drivers/STM32G0xx_HAL_Driver/Src/stm32g0xx_hal_uart_ex.c **** #define TX_FIFO_DEPTH 8U
  67:Drivers/STM32G0xx_HAL_Driver/Src/stm32g0xx_hal_uart_ex.c **** /**
  68:Drivers/STM32G0xx_HAL_Driver/Src/stm32g0xx_hal_uart_ex.c ****   * @}
  69:Drivers/STM32G0xx_HAL_Driver/Src/stm32g0xx_hal_uart_ex.c ****   */
  70:Drivers/STM32G0xx_HAL_Driver/Src/stm32g0xx_hal_uart_ex.c **** 
  71:Drivers/STM32G0xx_HAL_Driver/Src/stm32g0xx_hal_uart_ex.c **** /* Private macros ------------------------------------------------------------*/
  72:Drivers/STM32G0xx_HAL_Driver/Src/stm32g0xx_hal_uart_ex.c **** /* Private variables ---------------------------------------------------------*/
  73:Drivers/STM32G0xx_HAL_Driver/Src/stm32g0xx_hal_uart_ex.c **** /* Private function prototypes -----------------------------------------------*/
  74:Drivers/STM32G0xx_HAL_Driver/Src/stm32g0xx_hal_uart_ex.c **** /** @defgroup UARTEx_Private_Functions UARTEx Private Functions
  75:Drivers/STM32G0xx_HAL_Driver/Src/stm32g0xx_hal_uart_ex.c ****   * @{
  76:Drivers/STM32G0xx_HAL_Driver/Src/stm32g0xx_hal_uart_ex.c ****   */
  77:Drivers/STM32G0xx_HAL_Driver/Src/stm32g0xx_hal_uart_ex.c **** static void UARTEx_Wakeup_AddressConfig(UART_HandleTypeDef *huart, UART_WakeUpTypeDef WakeUpSelecti
  78:Drivers/STM32G0xx_HAL_Driver/Src/stm32g0xx_hal_uart_ex.c **** static void UARTEx_SetNbDataToProcess(UART_HandleTypeDef *huart);
  79:Drivers/STM32G0xx_HAL_Driver/Src/stm32g0xx_hal_uart_ex.c **** /**
  80:Drivers/STM32G0xx_HAL_Driver/Src/stm32g0xx_hal_uart_ex.c ****   * @}
  81:Drivers/STM32G0xx_HAL_Driver/Src/stm32g0xx_hal_uart_ex.c ****   */
  82:Drivers/STM32G0xx_HAL_Driver/Src/stm32g0xx_hal_uart_ex.c **** 
  83:Drivers/STM32G0xx_HAL_Driver/Src/stm32g0xx_hal_uart_ex.c **** /* Exported functions --------------------------------------------------------*/
  84:Drivers/STM32G0xx_HAL_Driver/Src/stm32g0xx_hal_uart_ex.c **** 
  85:Drivers/STM32G0xx_HAL_Driver/Src/stm32g0xx_hal_uart_ex.c **** /** @defgroup UARTEx_Exported_Functions  UARTEx Exported Functions
  86:Drivers/STM32G0xx_HAL_Driver/Src/stm32g0xx_hal_uart_ex.c ****   * @{
  87:Drivers/STM32G0xx_HAL_Driver/Src/stm32g0xx_hal_uart_ex.c ****   */
  88:Drivers/STM32G0xx_HAL_Driver/Src/stm32g0xx_hal_uart_ex.c **** 
  89:Drivers/STM32G0xx_HAL_Driver/Src/stm32g0xx_hal_uart_ex.c **** /** @defgroup UARTEx_Exported_Functions_Group1 Initialization and de-initialization functions
ARM GAS  C:\Users\W_LINU~1\AppData\Local\Temp\ccQ78mwl.s 			page 3


  90:Drivers/STM32G0xx_HAL_Driver/Src/stm32g0xx_hal_uart_ex.c ****   * @brief    Extended Initialization and Configuration Functions
  91:Drivers/STM32G0xx_HAL_Driver/Src/stm32g0xx_hal_uart_ex.c ****   *
  92:Drivers/STM32G0xx_HAL_Driver/Src/stm32g0xx_hal_uart_ex.c **** @verbatim
  93:Drivers/STM32G0xx_HAL_Driver/Src/stm32g0xx_hal_uart_ex.c **** ===============================================================================
  94:Drivers/STM32G0xx_HAL_Driver/Src/stm32g0xx_hal_uart_ex.c ****             ##### Initialization and Configuration functions #####
  95:Drivers/STM32G0xx_HAL_Driver/Src/stm32g0xx_hal_uart_ex.c ****  ===============================================================================
  96:Drivers/STM32G0xx_HAL_Driver/Src/stm32g0xx_hal_uart_ex.c ****     [..]
  97:Drivers/STM32G0xx_HAL_Driver/Src/stm32g0xx_hal_uart_ex.c ****     This subsection provides a set of functions allowing to initialize the USARTx or the UARTy
  98:Drivers/STM32G0xx_HAL_Driver/Src/stm32g0xx_hal_uart_ex.c ****     in asynchronous mode.
  99:Drivers/STM32G0xx_HAL_Driver/Src/stm32g0xx_hal_uart_ex.c ****       (+) For the asynchronous mode the parameters below can be configured:
 100:Drivers/STM32G0xx_HAL_Driver/Src/stm32g0xx_hal_uart_ex.c ****         (++) Baud Rate
 101:Drivers/STM32G0xx_HAL_Driver/Src/stm32g0xx_hal_uart_ex.c ****         (++) Word Length
 102:Drivers/STM32G0xx_HAL_Driver/Src/stm32g0xx_hal_uart_ex.c ****         (++) Stop Bit
 103:Drivers/STM32G0xx_HAL_Driver/Src/stm32g0xx_hal_uart_ex.c ****         (++) Parity: If the parity is enabled, then the MSB bit of the data written
 104:Drivers/STM32G0xx_HAL_Driver/Src/stm32g0xx_hal_uart_ex.c ****              in the data register is transmitted but is changed by the parity bit.
 105:Drivers/STM32G0xx_HAL_Driver/Src/stm32g0xx_hal_uart_ex.c ****         (++) Hardware flow control
 106:Drivers/STM32G0xx_HAL_Driver/Src/stm32g0xx_hal_uart_ex.c ****         (++) Receiver/transmitter modes
 107:Drivers/STM32G0xx_HAL_Driver/Src/stm32g0xx_hal_uart_ex.c ****         (++) Over Sampling Method
 108:Drivers/STM32G0xx_HAL_Driver/Src/stm32g0xx_hal_uart_ex.c ****         (++) One-Bit Sampling Method
 109:Drivers/STM32G0xx_HAL_Driver/Src/stm32g0xx_hal_uart_ex.c ****       (+) For the asynchronous mode, the following advanced features can be configured as well:
 110:Drivers/STM32G0xx_HAL_Driver/Src/stm32g0xx_hal_uart_ex.c ****         (++) TX and/or RX pin level inversion
 111:Drivers/STM32G0xx_HAL_Driver/Src/stm32g0xx_hal_uart_ex.c ****         (++) data logical level inversion
 112:Drivers/STM32G0xx_HAL_Driver/Src/stm32g0xx_hal_uart_ex.c ****         (++) RX and TX pins swap
 113:Drivers/STM32G0xx_HAL_Driver/Src/stm32g0xx_hal_uart_ex.c ****         (++) RX overrun detection disabling
 114:Drivers/STM32G0xx_HAL_Driver/Src/stm32g0xx_hal_uart_ex.c ****         (++) DMA disabling on RX error
 115:Drivers/STM32G0xx_HAL_Driver/Src/stm32g0xx_hal_uart_ex.c ****         (++) MSB first on communication line
 116:Drivers/STM32G0xx_HAL_Driver/Src/stm32g0xx_hal_uart_ex.c ****         (++) auto Baud rate detection
 117:Drivers/STM32G0xx_HAL_Driver/Src/stm32g0xx_hal_uart_ex.c ****     [..]
 118:Drivers/STM32G0xx_HAL_Driver/Src/stm32g0xx_hal_uart_ex.c ****     The HAL_RS485Ex_Init() API follows the UART RS485 mode configuration
 119:Drivers/STM32G0xx_HAL_Driver/Src/stm32g0xx_hal_uart_ex.c ****      procedures (details for the procedures are available in reference manual).
 120:Drivers/STM32G0xx_HAL_Driver/Src/stm32g0xx_hal_uart_ex.c **** 
 121:Drivers/STM32G0xx_HAL_Driver/Src/stm32g0xx_hal_uart_ex.c **** @endverbatim
 122:Drivers/STM32G0xx_HAL_Driver/Src/stm32g0xx_hal_uart_ex.c **** 
 123:Drivers/STM32G0xx_HAL_Driver/Src/stm32g0xx_hal_uart_ex.c ****   Depending on the frame length defined by the M1 and M0 bits (7-bit,
 124:Drivers/STM32G0xx_HAL_Driver/Src/stm32g0xx_hal_uart_ex.c ****   8-bit or 9-bit), the possible UART formats are listed in the
 125:Drivers/STM32G0xx_HAL_Driver/Src/stm32g0xx_hal_uart_ex.c ****   following table.
 126:Drivers/STM32G0xx_HAL_Driver/Src/stm32g0xx_hal_uart_ex.c **** 
 127:Drivers/STM32G0xx_HAL_Driver/Src/stm32g0xx_hal_uart_ex.c ****     Table 1. UART frame format.
 128:Drivers/STM32G0xx_HAL_Driver/Src/stm32g0xx_hal_uart_ex.c ****     +-----------------------------------------------------------------------+
 129:Drivers/STM32G0xx_HAL_Driver/Src/stm32g0xx_hal_uart_ex.c ****     |  M1 bit |  M0 bit |  PCE bit  |             UART frame                |
 130:Drivers/STM32G0xx_HAL_Driver/Src/stm32g0xx_hal_uart_ex.c ****     |---------|---------|-----------|---------------------------------------|
 131:Drivers/STM32G0xx_HAL_Driver/Src/stm32g0xx_hal_uart_ex.c ****     |    0    |    0    |    0      |    | SB |    8 bit data   | STB |     |
 132:Drivers/STM32G0xx_HAL_Driver/Src/stm32g0xx_hal_uart_ex.c ****     |---------|---------|-----------|---------------------------------------|
 133:Drivers/STM32G0xx_HAL_Driver/Src/stm32g0xx_hal_uart_ex.c ****     |    0    |    0    |    1      |    | SB | 7 bit data | PB | STB |     |
 134:Drivers/STM32G0xx_HAL_Driver/Src/stm32g0xx_hal_uart_ex.c ****     |---------|---------|-----------|---------------------------------------|
 135:Drivers/STM32G0xx_HAL_Driver/Src/stm32g0xx_hal_uart_ex.c ****     |    0    |    1    |    0      |    | SB |    9 bit data   | STB |     |
 136:Drivers/STM32G0xx_HAL_Driver/Src/stm32g0xx_hal_uart_ex.c ****     |---------|---------|-----------|---------------------------------------|
 137:Drivers/STM32G0xx_HAL_Driver/Src/stm32g0xx_hal_uart_ex.c ****     |    0    |    1    |    1      |    | SB | 8 bit data | PB | STB |     |
 138:Drivers/STM32G0xx_HAL_Driver/Src/stm32g0xx_hal_uart_ex.c ****     |---------|---------|-----------|---------------------------------------|
 139:Drivers/STM32G0xx_HAL_Driver/Src/stm32g0xx_hal_uart_ex.c ****     |    1    |    0    |    0      |    | SB |    7 bit data   | STB |     |
 140:Drivers/STM32G0xx_HAL_Driver/Src/stm32g0xx_hal_uart_ex.c ****     |---------|---------|-----------|---------------------------------------|
 141:Drivers/STM32G0xx_HAL_Driver/Src/stm32g0xx_hal_uart_ex.c ****     |    1    |    0    |    1      |    | SB | 6 bit data | PB | STB |     |
 142:Drivers/STM32G0xx_HAL_Driver/Src/stm32g0xx_hal_uart_ex.c ****     +-----------------------------------------------------------------------+
 143:Drivers/STM32G0xx_HAL_Driver/Src/stm32g0xx_hal_uart_ex.c **** 
 144:Drivers/STM32G0xx_HAL_Driver/Src/stm32g0xx_hal_uart_ex.c ****   * @{
 145:Drivers/STM32G0xx_HAL_Driver/Src/stm32g0xx_hal_uart_ex.c ****   */
 146:Drivers/STM32G0xx_HAL_Driver/Src/stm32g0xx_hal_uart_ex.c **** 
ARM GAS  C:\Users\W_LINU~1\AppData\Local\Temp\ccQ78mwl.s 			page 4


 147:Drivers/STM32G0xx_HAL_Driver/Src/stm32g0xx_hal_uart_ex.c **** /**
 148:Drivers/STM32G0xx_HAL_Driver/Src/stm32g0xx_hal_uart_ex.c ****   * @brief Initialize the RS485 Driver enable feature according to the specified
 149:Drivers/STM32G0xx_HAL_Driver/Src/stm32g0xx_hal_uart_ex.c ****   *         parameters in the UART_InitTypeDef and creates the associated handle.
 150:Drivers/STM32G0xx_HAL_Driver/Src/stm32g0xx_hal_uart_ex.c ****   * @param huart            UART handle.
 151:Drivers/STM32G0xx_HAL_Driver/Src/stm32g0xx_hal_uart_ex.c ****   * @param Polarity         Select the driver enable polarity.
 152:Drivers/STM32G0xx_HAL_Driver/Src/stm32g0xx_hal_uart_ex.c ****   *          This parameter can be one of the following values:
 153:Drivers/STM32G0xx_HAL_Driver/Src/stm32g0xx_hal_uart_ex.c ****   *          @arg @ref UART_DE_POLARITY_HIGH DE signal is active high
 154:Drivers/STM32G0xx_HAL_Driver/Src/stm32g0xx_hal_uart_ex.c ****   *          @arg @ref UART_DE_POLARITY_LOW  DE signal is active low
 155:Drivers/STM32G0xx_HAL_Driver/Src/stm32g0xx_hal_uart_ex.c ****   * @param AssertionTime    Driver Enable assertion time:
 156:Drivers/STM32G0xx_HAL_Driver/Src/stm32g0xx_hal_uart_ex.c ****   *       5-bit value defining the time between the activation of the DE (Driver Enable)
 157:Drivers/STM32G0xx_HAL_Driver/Src/stm32g0xx_hal_uart_ex.c ****   *       signal and the beginning of the start bit. It is expressed in sample time
 158:Drivers/STM32G0xx_HAL_Driver/Src/stm32g0xx_hal_uart_ex.c ****   *       units (1/8 or 1/16 bit time, depending on the oversampling rate)
 159:Drivers/STM32G0xx_HAL_Driver/Src/stm32g0xx_hal_uart_ex.c ****   * @param DeassertionTime  Driver Enable deassertion time:
 160:Drivers/STM32G0xx_HAL_Driver/Src/stm32g0xx_hal_uart_ex.c ****   *       5-bit value defining the time between the end of the last stop bit, in a
 161:Drivers/STM32G0xx_HAL_Driver/Src/stm32g0xx_hal_uart_ex.c ****   *       transmitted message, and the de-activation of the DE (Driver Enable) signal.
 162:Drivers/STM32G0xx_HAL_Driver/Src/stm32g0xx_hal_uart_ex.c ****   *       It is expressed in sample time units (1/8 or 1/16 bit time, depending on the
 163:Drivers/STM32G0xx_HAL_Driver/Src/stm32g0xx_hal_uart_ex.c ****   *       oversampling rate).
 164:Drivers/STM32G0xx_HAL_Driver/Src/stm32g0xx_hal_uart_ex.c ****   * @retval HAL status
 165:Drivers/STM32G0xx_HAL_Driver/Src/stm32g0xx_hal_uart_ex.c ****   */
 166:Drivers/STM32G0xx_HAL_Driver/Src/stm32g0xx_hal_uart_ex.c **** HAL_StatusTypeDef HAL_RS485Ex_Init(UART_HandleTypeDef *huart, uint32_t Polarity, uint32_t Assertion
 167:Drivers/STM32G0xx_HAL_Driver/Src/stm32g0xx_hal_uart_ex.c ****                                    uint32_t DeassertionTime)
 168:Drivers/STM32G0xx_HAL_Driver/Src/stm32g0xx_hal_uart_ex.c **** {
 169:Drivers/STM32G0xx_HAL_Driver/Src/stm32g0xx_hal_uart_ex.c ****   uint32_t temp;
 170:Drivers/STM32G0xx_HAL_Driver/Src/stm32g0xx_hal_uart_ex.c **** 
 171:Drivers/STM32G0xx_HAL_Driver/Src/stm32g0xx_hal_uart_ex.c ****   /* Check the UART handle allocation */
 172:Drivers/STM32G0xx_HAL_Driver/Src/stm32g0xx_hal_uart_ex.c ****   if (huart == NULL)
 173:Drivers/STM32G0xx_HAL_Driver/Src/stm32g0xx_hal_uart_ex.c ****   {
 174:Drivers/STM32G0xx_HAL_Driver/Src/stm32g0xx_hal_uart_ex.c ****     return HAL_ERROR;
 175:Drivers/STM32G0xx_HAL_Driver/Src/stm32g0xx_hal_uart_ex.c ****   }
 176:Drivers/STM32G0xx_HAL_Driver/Src/stm32g0xx_hal_uart_ex.c ****   /* Check the Driver Enable UART instance */
 177:Drivers/STM32G0xx_HAL_Driver/Src/stm32g0xx_hal_uart_ex.c ****   assert_param(IS_UART_DRIVER_ENABLE_INSTANCE(huart->Instance));
 178:Drivers/STM32G0xx_HAL_Driver/Src/stm32g0xx_hal_uart_ex.c **** 
 179:Drivers/STM32G0xx_HAL_Driver/Src/stm32g0xx_hal_uart_ex.c ****   /* Check the Driver Enable polarity */
 180:Drivers/STM32G0xx_HAL_Driver/Src/stm32g0xx_hal_uart_ex.c ****   assert_param(IS_UART_DE_POLARITY(Polarity));
 181:Drivers/STM32G0xx_HAL_Driver/Src/stm32g0xx_hal_uart_ex.c **** 
 182:Drivers/STM32G0xx_HAL_Driver/Src/stm32g0xx_hal_uart_ex.c ****   /* Check the Driver Enable assertion time */
 183:Drivers/STM32G0xx_HAL_Driver/Src/stm32g0xx_hal_uart_ex.c ****   assert_param(IS_UART_ASSERTIONTIME(AssertionTime));
 184:Drivers/STM32G0xx_HAL_Driver/Src/stm32g0xx_hal_uart_ex.c **** 
 185:Drivers/STM32G0xx_HAL_Driver/Src/stm32g0xx_hal_uart_ex.c ****   /* Check the Driver Enable deassertion time */
 186:Drivers/STM32G0xx_HAL_Driver/Src/stm32g0xx_hal_uart_ex.c ****   assert_param(IS_UART_DEASSERTIONTIME(DeassertionTime));
 187:Drivers/STM32G0xx_HAL_Driver/Src/stm32g0xx_hal_uart_ex.c **** 
 188:Drivers/STM32G0xx_HAL_Driver/Src/stm32g0xx_hal_uart_ex.c ****   if (huart->gState == HAL_UART_STATE_RESET)
 189:Drivers/STM32G0xx_HAL_Driver/Src/stm32g0xx_hal_uart_ex.c ****   {
 190:Drivers/STM32G0xx_HAL_Driver/Src/stm32g0xx_hal_uart_ex.c ****     /* Allocate lock resource and initialize it */
 191:Drivers/STM32G0xx_HAL_Driver/Src/stm32g0xx_hal_uart_ex.c ****     huart->Lock = HAL_UNLOCKED;
 192:Drivers/STM32G0xx_HAL_Driver/Src/stm32g0xx_hal_uart_ex.c **** 
 193:Drivers/STM32G0xx_HAL_Driver/Src/stm32g0xx_hal_uart_ex.c **** #if (USE_HAL_UART_REGISTER_CALLBACKS == 1)
 194:Drivers/STM32G0xx_HAL_Driver/Src/stm32g0xx_hal_uart_ex.c ****     UART_InitCallbacksToDefault(huart);
 195:Drivers/STM32G0xx_HAL_Driver/Src/stm32g0xx_hal_uart_ex.c **** 
 196:Drivers/STM32G0xx_HAL_Driver/Src/stm32g0xx_hal_uart_ex.c ****     if (huart->MspInitCallback == NULL)
 197:Drivers/STM32G0xx_HAL_Driver/Src/stm32g0xx_hal_uart_ex.c ****     {
 198:Drivers/STM32G0xx_HAL_Driver/Src/stm32g0xx_hal_uart_ex.c ****       huart->MspInitCallback = HAL_UART_MspInit;
 199:Drivers/STM32G0xx_HAL_Driver/Src/stm32g0xx_hal_uart_ex.c ****     }
 200:Drivers/STM32G0xx_HAL_Driver/Src/stm32g0xx_hal_uart_ex.c **** 
 201:Drivers/STM32G0xx_HAL_Driver/Src/stm32g0xx_hal_uart_ex.c ****     /* Init the low level hardware */
 202:Drivers/STM32G0xx_HAL_Driver/Src/stm32g0xx_hal_uart_ex.c ****     huart->MspInitCallback(huart);
 203:Drivers/STM32G0xx_HAL_Driver/Src/stm32g0xx_hal_uart_ex.c **** #else
ARM GAS  C:\Users\W_LINU~1\AppData\Local\Temp\ccQ78mwl.s 			page 5


 204:Drivers/STM32G0xx_HAL_Driver/Src/stm32g0xx_hal_uart_ex.c ****     /* Init the low level hardware : GPIO, CLOCK, CORTEX */
 205:Drivers/STM32G0xx_HAL_Driver/Src/stm32g0xx_hal_uart_ex.c ****     HAL_UART_MspInit(huart);
 206:Drivers/STM32G0xx_HAL_Driver/Src/stm32g0xx_hal_uart_ex.c **** #endif /* (USE_HAL_UART_REGISTER_CALLBACKS) */
 207:Drivers/STM32G0xx_HAL_Driver/Src/stm32g0xx_hal_uart_ex.c ****   }
 208:Drivers/STM32G0xx_HAL_Driver/Src/stm32g0xx_hal_uart_ex.c **** 
 209:Drivers/STM32G0xx_HAL_Driver/Src/stm32g0xx_hal_uart_ex.c ****   huart->gState = HAL_UART_STATE_BUSY;
 210:Drivers/STM32G0xx_HAL_Driver/Src/stm32g0xx_hal_uart_ex.c **** 
 211:Drivers/STM32G0xx_HAL_Driver/Src/stm32g0xx_hal_uart_ex.c ****   /* Disable the Peripheral */
 212:Drivers/STM32G0xx_HAL_Driver/Src/stm32g0xx_hal_uart_ex.c ****   __HAL_UART_DISABLE(huart);
 213:Drivers/STM32G0xx_HAL_Driver/Src/stm32g0xx_hal_uart_ex.c **** 
 214:Drivers/STM32G0xx_HAL_Driver/Src/stm32g0xx_hal_uart_ex.c ****   /* Set the UART Communication parameters */
 215:Drivers/STM32G0xx_HAL_Driver/Src/stm32g0xx_hal_uart_ex.c ****   if (UART_SetConfig(huart) == HAL_ERROR)
 216:Drivers/STM32G0xx_HAL_Driver/Src/stm32g0xx_hal_uart_ex.c ****   {
 217:Drivers/STM32G0xx_HAL_Driver/Src/stm32g0xx_hal_uart_ex.c ****     return HAL_ERROR;
 218:Drivers/STM32G0xx_HAL_Driver/Src/stm32g0xx_hal_uart_ex.c ****   }
 219:Drivers/STM32G0xx_HAL_Driver/Src/stm32g0xx_hal_uart_ex.c **** 
 220:Drivers/STM32G0xx_HAL_Driver/Src/stm32g0xx_hal_uart_ex.c ****   if (huart->AdvancedInit.AdvFeatureInit != UART_ADVFEATURE_NO_INIT)
 221:Drivers/STM32G0xx_HAL_Driver/Src/stm32g0xx_hal_uart_ex.c ****   {
 222:Drivers/STM32G0xx_HAL_Driver/Src/stm32g0xx_hal_uart_ex.c ****     UART_AdvFeatureConfig(huart);
 223:Drivers/STM32G0xx_HAL_Driver/Src/stm32g0xx_hal_uart_ex.c ****   }
 224:Drivers/STM32G0xx_HAL_Driver/Src/stm32g0xx_hal_uart_ex.c **** 
 225:Drivers/STM32G0xx_HAL_Driver/Src/stm32g0xx_hal_uart_ex.c ****   /* Enable the Driver Enable mode by setting the DEM bit in the CR3 register */
 226:Drivers/STM32G0xx_HAL_Driver/Src/stm32g0xx_hal_uart_ex.c ****   SET_BIT(huart->Instance->CR3, USART_CR3_DEM);
 227:Drivers/STM32G0xx_HAL_Driver/Src/stm32g0xx_hal_uart_ex.c **** 
 228:Drivers/STM32G0xx_HAL_Driver/Src/stm32g0xx_hal_uart_ex.c ****   /* Set the Driver Enable polarity */
 229:Drivers/STM32G0xx_HAL_Driver/Src/stm32g0xx_hal_uart_ex.c ****   MODIFY_REG(huart->Instance->CR3, USART_CR3_DEP, Polarity);
 230:Drivers/STM32G0xx_HAL_Driver/Src/stm32g0xx_hal_uart_ex.c **** 
 231:Drivers/STM32G0xx_HAL_Driver/Src/stm32g0xx_hal_uart_ex.c ****   /* Set the Driver Enable assertion and deassertion times */
 232:Drivers/STM32G0xx_HAL_Driver/Src/stm32g0xx_hal_uart_ex.c ****   temp = (AssertionTime << UART_CR1_DEAT_ADDRESS_LSB_POS);
 233:Drivers/STM32G0xx_HAL_Driver/Src/stm32g0xx_hal_uart_ex.c ****   temp |= (DeassertionTime << UART_CR1_DEDT_ADDRESS_LSB_POS);
 234:Drivers/STM32G0xx_HAL_Driver/Src/stm32g0xx_hal_uart_ex.c ****   MODIFY_REG(huart->Instance->CR1, (USART_CR1_DEDT | USART_CR1_DEAT), temp);
 235:Drivers/STM32G0xx_HAL_Driver/Src/stm32g0xx_hal_uart_ex.c **** 
 236:Drivers/STM32G0xx_HAL_Driver/Src/stm32g0xx_hal_uart_ex.c ****   /* Enable the Peripheral */
 237:Drivers/STM32G0xx_HAL_Driver/Src/stm32g0xx_hal_uart_ex.c ****   __HAL_UART_ENABLE(huart);
 238:Drivers/STM32G0xx_HAL_Driver/Src/stm32g0xx_hal_uart_ex.c **** 
 239:Drivers/STM32G0xx_HAL_Driver/Src/stm32g0xx_hal_uart_ex.c ****   /* TEACK and/or REACK to check before moving huart->gState and huart->RxState to Ready */
 240:Drivers/STM32G0xx_HAL_Driver/Src/stm32g0xx_hal_uart_ex.c ****   return (UART_CheckIdleState(huart));
 241:Drivers/STM32G0xx_HAL_Driver/Src/stm32g0xx_hal_uart_ex.c **** }
 242:Drivers/STM32G0xx_HAL_Driver/Src/stm32g0xx_hal_uart_ex.c **** 
 243:Drivers/STM32G0xx_HAL_Driver/Src/stm32g0xx_hal_uart_ex.c **** /**
 244:Drivers/STM32G0xx_HAL_Driver/Src/stm32g0xx_hal_uart_ex.c ****   * @}
 245:Drivers/STM32G0xx_HAL_Driver/Src/stm32g0xx_hal_uart_ex.c ****   */
 246:Drivers/STM32G0xx_HAL_Driver/Src/stm32g0xx_hal_uart_ex.c **** 
 247:Drivers/STM32G0xx_HAL_Driver/Src/stm32g0xx_hal_uart_ex.c **** /** @defgroup UARTEx_Exported_Functions_Group2 IO operation functions
 248:Drivers/STM32G0xx_HAL_Driver/Src/stm32g0xx_hal_uart_ex.c ****   *  @brief Extended functions
 249:Drivers/STM32G0xx_HAL_Driver/Src/stm32g0xx_hal_uart_ex.c ****   *
 250:Drivers/STM32G0xx_HAL_Driver/Src/stm32g0xx_hal_uart_ex.c **** @verbatim
 251:Drivers/STM32G0xx_HAL_Driver/Src/stm32g0xx_hal_uart_ex.c ****  ===============================================================================
 252:Drivers/STM32G0xx_HAL_Driver/Src/stm32g0xx_hal_uart_ex.c ****                       ##### IO operation functions #####
 253:Drivers/STM32G0xx_HAL_Driver/Src/stm32g0xx_hal_uart_ex.c ****  ===============================================================================
 254:Drivers/STM32G0xx_HAL_Driver/Src/stm32g0xx_hal_uart_ex.c ****     This subsection provides a set of Wakeup and FIFO mode related callback functions.
 255:Drivers/STM32G0xx_HAL_Driver/Src/stm32g0xx_hal_uart_ex.c **** 
 256:Drivers/STM32G0xx_HAL_Driver/Src/stm32g0xx_hal_uart_ex.c ****     (#) Wakeup from Stop mode Callback:
 257:Drivers/STM32G0xx_HAL_Driver/Src/stm32g0xx_hal_uart_ex.c ****         (+) HAL_UARTEx_WakeupCallback()
 258:Drivers/STM32G0xx_HAL_Driver/Src/stm32g0xx_hal_uart_ex.c **** 
 259:Drivers/STM32G0xx_HAL_Driver/Src/stm32g0xx_hal_uart_ex.c ****     (#) TX/RX Fifos Callbacks:
 260:Drivers/STM32G0xx_HAL_Driver/Src/stm32g0xx_hal_uart_ex.c ****         (+) HAL_UARTEx_RxFifoFullCallback()
ARM GAS  C:\Users\W_LINU~1\AppData\Local\Temp\ccQ78mwl.s 			page 6


 261:Drivers/STM32G0xx_HAL_Driver/Src/stm32g0xx_hal_uart_ex.c ****         (+) HAL_UARTEx_TxFifoEmptyCallback()
 262:Drivers/STM32G0xx_HAL_Driver/Src/stm32g0xx_hal_uart_ex.c **** 
 263:Drivers/STM32G0xx_HAL_Driver/Src/stm32g0xx_hal_uart_ex.c **** @endverbatim
 264:Drivers/STM32G0xx_HAL_Driver/Src/stm32g0xx_hal_uart_ex.c ****   * @{
 265:Drivers/STM32G0xx_HAL_Driver/Src/stm32g0xx_hal_uart_ex.c ****   */
 266:Drivers/STM32G0xx_HAL_Driver/Src/stm32g0xx_hal_uart_ex.c **** 
 267:Drivers/STM32G0xx_HAL_Driver/Src/stm32g0xx_hal_uart_ex.c **** /**
 268:Drivers/STM32G0xx_HAL_Driver/Src/stm32g0xx_hal_uart_ex.c ****   * @brief UART wakeup from Stop mode callback.
 269:Drivers/STM32G0xx_HAL_Driver/Src/stm32g0xx_hal_uart_ex.c ****   * @param huart UART handle.
 270:Drivers/STM32G0xx_HAL_Driver/Src/stm32g0xx_hal_uart_ex.c ****   * @retval None
 271:Drivers/STM32G0xx_HAL_Driver/Src/stm32g0xx_hal_uart_ex.c ****   */
 272:Drivers/STM32G0xx_HAL_Driver/Src/stm32g0xx_hal_uart_ex.c **** __weak void HAL_UARTEx_WakeupCallback(UART_HandleTypeDef *huart)
 273:Drivers/STM32G0xx_HAL_Driver/Src/stm32g0xx_hal_uart_ex.c **** {
 274:Drivers/STM32G0xx_HAL_Driver/Src/stm32g0xx_hal_uart_ex.c ****   /* Prevent unused argument(s) compilation warning */
 275:Drivers/STM32G0xx_HAL_Driver/Src/stm32g0xx_hal_uart_ex.c ****   UNUSED(huart);
 276:Drivers/STM32G0xx_HAL_Driver/Src/stm32g0xx_hal_uart_ex.c **** 
 277:Drivers/STM32G0xx_HAL_Driver/Src/stm32g0xx_hal_uart_ex.c ****   /* NOTE : This function should not be modified, when the callback is needed,
 278:Drivers/STM32G0xx_HAL_Driver/Src/stm32g0xx_hal_uart_ex.c ****             the HAL_UARTEx_WakeupCallback can be implemented in the user file.
 279:Drivers/STM32G0xx_HAL_Driver/Src/stm32g0xx_hal_uart_ex.c ****    */
 280:Drivers/STM32G0xx_HAL_Driver/Src/stm32g0xx_hal_uart_ex.c **** }
 281:Drivers/STM32G0xx_HAL_Driver/Src/stm32g0xx_hal_uart_ex.c **** 
 282:Drivers/STM32G0xx_HAL_Driver/Src/stm32g0xx_hal_uart_ex.c **** /**
 283:Drivers/STM32G0xx_HAL_Driver/Src/stm32g0xx_hal_uart_ex.c ****   * @brief  UART RX Fifo full callback.
 284:Drivers/STM32G0xx_HAL_Driver/Src/stm32g0xx_hal_uart_ex.c ****   * @param  huart UART handle.
 285:Drivers/STM32G0xx_HAL_Driver/Src/stm32g0xx_hal_uart_ex.c ****   * @retval None
 286:Drivers/STM32G0xx_HAL_Driver/Src/stm32g0xx_hal_uart_ex.c ****   */
 287:Drivers/STM32G0xx_HAL_Driver/Src/stm32g0xx_hal_uart_ex.c **** __weak void HAL_UARTEx_RxFifoFullCallback(UART_HandleTypeDef *huart)
 288:Drivers/STM32G0xx_HAL_Driver/Src/stm32g0xx_hal_uart_ex.c **** {
 289:Drivers/STM32G0xx_HAL_Driver/Src/stm32g0xx_hal_uart_ex.c ****   /* Prevent unused argument(s) compilation warning */
 290:Drivers/STM32G0xx_HAL_Driver/Src/stm32g0xx_hal_uart_ex.c ****   UNUSED(huart);
 291:Drivers/STM32G0xx_HAL_Driver/Src/stm32g0xx_hal_uart_ex.c **** 
 292:Drivers/STM32G0xx_HAL_Driver/Src/stm32g0xx_hal_uart_ex.c ****   /* NOTE : This function should not be modified, when the callback is needed,
 293:Drivers/STM32G0xx_HAL_Driver/Src/stm32g0xx_hal_uart_ex.c ****             the HAL_UARTEx_RxFifoFullCallback can be implemented in the user file.
 294:Drivers/STM32G0xx_HAL_Driver/Src/stm32g0xx_hal_uart_ex.c ****    */
 295:Drivers/STM32G0xx_HAL_Driver/Src/stm32g0xx_hal_uart_ex.c **** }
 296:Drivers/STM32G0xx_HAL_Driver/Src/stm32g0xx_hal_uart_ex.c **** 
 297:Drivers/STM32G0xx_HAL_Driver/Src/stm32g0xx_hal_uart_ex.c **** /**
 298:Drivers/STM32G0xx_HAL_Driver/Src/stm32g0xx_hal_uart_ex.c ****   * @brief  UART TX Fifo empty callback.
 299:Drivers/STM32G0xx_HAL_Driver/Src/stm32g0xx_hal_uart_ex.c ****   * @param  huart UART handle.
 300:Drivers/STM32G0xx_HAL_Driver/Src/stm32g0xx_hal_uart_ex.c ****   * @retval None
 301:Drivers/STM32G0xx_HAL_Driver/Src/stm32g0xx_hal_uart_ex.c ****   */
 302:Drivers/STM32G0xx_HAL_Driver/Src/stm32g0xx_hal_uart_ex.c **** __weak void HAL_UARTEx_TxFifoEmptyCallback(UART_HandleTypeDef *huart)
 303:Drivers/STM32G0xx_HAL_Driver/Src/stm32g0xx_hal_uart_ex.c **** {
 304:Drivers/STM32G0xx_HAL_Driver/Src/stm32g0xx_hal_uart_ex.c ****   /* Prevent unused argument(s) compilation warning */
 305:Drivers/STM32G0xx_HAL_Driver/Src/stm32g0xx_hal_uart_ex.c ****   UNUSED(huart);
 306:Drivers/STM32G0xx_HAL_Driver/Src/stm32g0xx_hal_uart_ex.c **** 
 307:Drivers/STM32G0xx_HAL_Driver/Src/stm32g0xx_hal_uart_ex.c ****   /* NOTE : This function should not be modified, when the callback is needed,
 308:Drivers/STM32G0xx_HAL_Driver/Src/stm32g0xx_hal_uart_ex.c ****             the HAL_UARTEx_TxFifoEmptyCallback can be implemented in the user file.
 309:Drivers/STM32G0xx_HAL_Driver/Src/stm32g0xx_hal_uart_ex.c ****    */
 310:Drivers/STM32G0xx_HAL_Driver/Src/stm32g0xx_hal_uart_ex.c **** }
 311:Drivers/STM32G0xx_HAL_Driver/Src/stm32g0xx_hal_uart_ex.c **** 
 312:Drivers/STM32G0xx_HAL_Driver/Src/stm32g0xx_hal_uart_ex.c **** /**
 313:Drivers/STM32G0xx_HAL_Driver/Src/stm32g0xx_hal_uart_ex.c ****   * @}
 314:Drivers/STM32G0xx_HAL_Driver/Src/stm32g0xx_hal_uart_ex.c ****   */
 315:Drivers/STM32G0xx_HAL_Driver/Src/stm32g0xx_hal_uart_ex.c **** 
 316:Drivers/STM32G0xx_HAL_Driver/Src/stm32g0xx_hal_uart_ex.c **** /** @defgroup UARTEx_Exported_Functions_Group3 Peripheral Control functions
 317:Drivers/STM32G0xx_HAL_Driver/Src/stm32g0xx_hal_uart_ex.c ****   * @brief    Extended Peripheral Control functions
ARM GAS  C:\Users\W_LINU~1\AppData\Local\Temp\ccQ78mwl.s 			page 7


 318:Drivers/STM32G0xx_HAL_Driver/Src/stm32g0xx_hal_uart_ex.c ****   *
 319:Drivers/STM32G0xx_HAL_Driver/Src/stm32g0xx_hal_uart_ex.c **** @verbatim
 320:Drivers/STM32G0xx_HAL_Driver/Src/stm32g0xx_hal_uart_ex.c ****  ===============================================================================
 321:Drivers/STM32G0xx_HAL_Driver/Src/stm32g0xx_hal_uart_ex.c ****                       ##### Peripheral Control functions #####
 322:Drivers/STM32G0xx_HAL_Driver/Src/stm32g0xx_hal_uart_ex.c ****  ===============================================================================
 323:Drivers/STM32G0xx_HAL_Driver/Src/stm32g0xx_hal_uart_ex.c ****     [..] This section provides the following functions:
 324:Drivers/STM32G0xx_HAL_Driver/Src/stm32g0xx_hal_uart_ex.c ****      (+) HAL_MultiProcessorEx_AddressLength_Set() API optionally sets the UART node address
 325:Drivers/STM32G0xx_HAL_Driver/Src/stm32g0xx_hal_uart_ex.c ****          detection length to more than 4 bits for multiprocessor address mark wake up.
 326:Drivers/STM32G0xx_HAL_Driver/Src/stm32g0xx_hal_uart_ex.c ****      (+) HAL_UARTEx_StopModeWakeUpSourceConfig() API defines the wake-up from stop mode
 327:Drivers/STM32G0xx_HAL_Driver/Src/stm32g0xx_hal_uart_ex.c ****          trigger: address match, Start Bit detection or RXNE bit status.
 328:Drivers/STM32G0xx_HAL_Driver/Src/stm32g0xx_hal_uart_ex.c ****      (+) HAL_UARTEx_EnableStopMode() API enables the UART to wake up the MCU from stop mode
 329:Drivers/STM32G0xx_HAL_Driver/Src/stm32g0xx_hal_uart_ex.c ****      (+) HAL_UARTEx_DisableStopMode() API disables the above functionality
 330:Drivers/STM32G0xx_HAL_Driver/Src/stm32g0xx_hal_uart_ex.c ****      (+) HAL_UARTEx_EnableFifoMode() API enables the FIFO mode
 331:Drivers/STM32G0xx_HAL_Driver/Src/stm32g0xx_hal_uart_ex.c ****      (+) HAL_UARTEx_DisableFifoMode() API disables the FIFO mode
 332:Drivers/STM32G0xx_HAL_Driver/Src/stm32g0xx_hal_uart_ex.c ****      (+) HAL_UARTEx_SetTxFifoThreshold() API sets the TX FIFO threshold
 333:Drivers/STM32G0xx_HAL_Driver/Src/stm32g0xx_hal_uart_ex.c ****      (+) HAL_UARTEx_SetRxFifoThreshold() API sets the RX FIFO threshold
 334:Drivers/STM32G0xx_HAL_Driver/Src/stm32g0xx_hal_uart_ex.c **** 
 335:Drivers/STM32G0xx_HAL_Driver/Src/stm32g0xx_hal_uart_ex.c ****     [..] This subsection also provides a set of additional functions providing enhanced reception
 336:Drivers/STM32G0xx_HAL_Driver/Src/stm32g0xx_hal_uart_ex.c ****     services to user. (For example, these functions allow application to handle use cases
 337:Drivers/STM32G0xx_HAL_Driver/Src/stm32g0xx_hal_uart_ex.c ****     where number of data to be received is unknown).
 338:Drivers/STM32G0xx_HAL_Driver/Src/stm32g0xx_hal_uart_ex.c **** 
 339:Drivers/STM32G0xx_HAL_Driver/Src/stm32g0xx_hal_uart_ex.c ****     (#) Compared to standard reception services which only consider number of received
 340:Drivers/STM32G0xx_HAL_Driver/Src/stm32g0xx_hal_uart_ex.c ****         data elements as reception completion criteria, these functions also consider additional ev
 341:Drivers/STM32G0xx_HAL_Driver/Src/stm32g0xx_hal_uart_ex.c ****         as triggers for updating reception status to caller :
 342:Drivers/STM32G0xx_HAL_Driver/Src/stm32g0xx_hal_uart_ex.c ****        (+) Detection of inactivity period (RX line has not been active for a given period).
 343:Drivers/STM32G0xx_HAL_Driver/Src/stm32g0xx_hal_uart_ex.c ****           (++) RX inactivity detected by IDLE event, i.e. RX line has been in idle state (normally 
 344:Drivers/STM32G0xx_HAL_Driver/Src/stm32g0xx_hal_uart_ex.c ****                for 1 frame time, after last received byte.
 345:Drivers/STM32G0xx_HAL_Driver/Src/stm32g0xx_hal_uart_ex.c ****           (++) RX inactivity detected by RTO, i.e. line has been in idle state
 346:Drivers/STM32G0xx_HAL_Driver/Src/stm32g0xx_hal_uart_ex.c ****                for a programmable time, after last received byte.
 347:Drivers/STM32G0xx_HAL_Driver/Src/stm32g0xx_hal_uart_ex.c ****        (+) Detection that a specific character has been received.
 348:Drivers/STM32G0xx_HAL_Driver/Src/stm32g0xx_hal_uart_ex.c **** 
 349:Drivers/STM32G0xx_HAL_Driver/Src/stm32g0xx_hal_uart_ex.c ****     (#) There are two mode of transfer:
 350:Drivers/STM32G0xx_HAL_Driver/Src/stm32g0xx_hal_uart_ex.c ****        (+) Blocking mode: The reception is performed in polling mode, until either expected number 
 351:Drivers/STM32G0xx_HAL_Driver/Src/stm32g0xx_hal_uart_ex.c ****            or till IDLE event occurs. Reception is handled only during function execution.
 352:Drivers/STM32G0xx_HAL_Driver/Src/stm32g0xx_hal_uart_ex.c ****            When function exits, no data reception could occur. HAL status and number of actually re
 353:Drivers/STM32G0xx_HAL_Driver/Src/stm32g0xx_hal_uart_ex.c ****            are returned by function after finishing transfer.
 354:Drivers/STM32G0xx_HAL_Driver/Src/stm32g0xx_hal_uart_ex.c ****        (+) Non-Blocking mode: The reception is performed using Interrupts or DMA.
 355:Drivers/STM32G0xx_HAL_Driver/Src/stm32g0xx_hal_uart_ex.c ****            These API's return the HAL status.
 356:Drivers/STM32G0xx_HAL_Driver/Src/stm32g0xx_hal_uart_ex.c ****            The end of the data processing will be indicated through the
 357:Drivers/STM32G0xx_HAL_Driver/Src/stm32g0xx_hal_uart_ex.c ****            dedicated UART IRQ when using Interrupt mode or the DMA IRQ when using DMA mode.
 358:Drivers/STM32G0xx_HAL_Driver/Src/stm32g0xx_hal_uart_ex.c ****            The HAL_UARTEx_RxEventCallback() user callback will be executed during Receive process
 359:Drivers/STM32G0xx_HAL_Driver/Src/stm32g0xx_hal_uart_ex.c ****            The HAL_UART_ErrorCallback()user callback will be executed when a reception error is det
 360:Drivers/STM32G0xx_HAL_Driver/Src/stm32g0xx_hal_uart_ex.c **** 
 361:Drivers/STM32G0xx_HAL_Driver/Src/stm32g0xx_hal_uart_ex.c ****     (#) Blocking mode API:
 362:Drivers/STM32G0xx_HAL_Driver/Src/stm32g0xx_hal_uart_ex.c ****         (+) HAL_UARTEx_ReceiveToIdle()
 363:Drivers/STM32G0xx_HAL_Driver/Src/stm32g0xx_hal_uart_ex.c **** 
 364:Drivers/STM32G0xx_HAL_Driver/Src/stm32g0xx_hal_uart_ex.c ****     (#) Non-Blocking mode API with Interrupt:
 365:Drivers/STM32G0xx_HAL_Driver/Src/stm32g0xx_hal_uart_ex.c ****         (+) HAL_UARTEx_ReceiveToIdle_IT()
 366:Drivers/STM32G0xx_HAL_Driver/Src/stm32g0xx_hal_uart_ex.c **** 
 367:Drivers/STM32G0xx_HAL_Driver/Src/stm32g0xx_hal_uart_ex.c ****     (#) Non-Blocking mode API with DMA:
 368:Drivers/STM32G0xx_HAL_Driver/Src/stm32g0xx_hal_uart_ex.c ****         (+) HAL_UARTEx_ReceiveToIdle_DMA()
 369:Drivers/STM32G0xx_HAL_Driver/Src/stm32g0xx_hal_uart_ex.c **** 
 370:Drivers/STM32G0xx_HAL_Driver/Src/stm32g0xx_hal_uart_ex.c **** @endverbatim
 371:Drivers/STM32G0xx_HAL_Driver/Src/stm32g0xx_hal_uart_ex.c ****   * @{
 372:Drivers/STM32G0xx_HAL_Driver/Src/stm32g0xx_hal_uart_ex.c ****   */
 373:Drivers/STM32G0xx_HAL_Driver/Src/stm32g0xx_hal_uart_ex.c **** 
 374:Drivers/STM32G0xx_HAL_Driver/Src/stm32g0xx_hal_uart_ex.c **** /**
ARM GAS  C:\Users\W_LINU~1\AppData\Local\Temp\ccQ78mwl.s 			page 8


 375:Drivers/STM32G0xx_HAL_Driver/Src/stm32g0xx_hal_uart_ex.c ****   * @brief By default in multiprocessor mode, when the wake up method is set
 376:Drivers/STM32G0xx_HAL_Driver/Src/stm32g0xx_hal_uart_ex.c ****   *        to address mark, the UART handles only 4-bit long addresses detection;
 377:Drivers/STM32G0xx_HAL_Driver/Src/stm32g0xx_hal_uart_ex.c ****   *        this API allows to enable longer addresses detection (6-, 7- or 8-bit
 378:Drivers/STM32G0xx_HAL_Driver/Src/stm32g0xx_hal_uart_ex.c ****   *        long).
 379:Drivers/STM32G0xx_HAL_Driver/Src/stm32g0xx_hal_uart_ex.c ****   * @note  Addresses detection lengths are: 6-bit address detection in 7-bit data mode,
 380:Drivers/STM32G0xx_HAL_Driver/Src/stm32g0xx_hal_uart_ex.c ****   *        7-bit address detection in 8-bit data mode, 8-bit address detection in 9-bit data mode.
 381:Drivers/STM32G0xx_HAL_Driver/Src/stm32g0xx_hal_uart_ex.c ****   * @param huart         UART handle.
 382:Drivers/STM32G0xx_HAL_Driver/Src/stm32g0xx_hal_uart_ex.c ****   * @param AddressLength This parameter can be one of the following values:
 383:Drivers/STM32G0xx_HAL_Driver/Src/stm32g0xx_hal_uart_ex.c ****   *          @arg @ref UART_ADDRESS_DETECT_4B 4-bit long address
 384:Drivers/STM32G0xx_HAL_Driver/Src/stm32g0xx_hal_uart_ex.c ****   *          @arg @ref UART_ADDRESS_DETECT_7B 6-, 7- or 8-bit long address
 385:Drivers/STM32G0xx_HAL_Driver/Src/stm32g0xx_hal_uart_ex.c ****   * @retval HAL status
 386:Drivers/STM32G0xx_HAL_Driver/Src/stm32g0xx_hal_uart_ex.c ****   */
 387:Drivers/STM32G0xx_HAL_Driver/Src/stm32g0xx_hal_uart_ex.c **** HAL_StatusTypeDef HAL_MultiProcessorEx_AddressLength_Set(UART_HandleTypeDef *huart, uint32_t Addres
 388:Drivers/STM32G0xx_HAL_Driver/Src/stm32g0xx_hal_uart_ex.c **** {
 389:Drivers/STM32G0xx_HAL_Driver/Src/stm32g0xx_hal_uart_ex.c ****   /* Check the UART handle allocation */
 390:Drivers/STM32G0xx_HAL_Driver/Src/stm32g0xx_hal_uart_ex.c ****   if (huart == NULL)
 391:Drivers/STM32G0xx_HAL_Driver/Src/stm32g0xx_hal_uart_ex.c ****   {
 392:Drivers/STM32G0xx_HAL_Driver/Src/stm32g0xx_hal_uart_ex.c ****     return HAL_ERROR;
 393:Drivers/STM32G0xx_HAL_Driver/Src/stm32g0xx_hal_uart_ex.c ****   }
 394:Drivers/STM32G0xx_HAL_Driver/Src/stm32g0xx_hal_uart_ex.c **** 
 395:Drivers/STM32G0xx_HAL_Driver/Src/stm32g0xx_hal_uart_ex.c ****   /* Check the address length parameter */
 396:Drivers/STM32G0xx_HAL_Driver/Src/stm32g0xx_hal_uart_ex.c ****   assert_param(IS_UART_ADDRESSLENGTH_DETECT(AddressLength));
 397:Drivers/STM32G0xx_HAL_Driver/Src/stm32g0xx_hal_uart_ex.c **** 
 398:Drivers/STM32G0xx_HAL_Driver/Src/stm32g0xx_hal_uart_ex.c ****   huart->gState = HAL_UART_STATE_BUSY;
 399:Drivers/STM32G0xx_HAL_Driver/Src/stm32g0xx_hal_uart_ex.c **** 
 400:Drivers/STM32G0xx_HAL_Driver/Src/stm32g0xx_hal_uart_ex.c ****   /* Disable the Peripheral */
 401:Drivers/STM32G0xx_HAL_Driver/Src/stm32g0xx_hal_uart_ex.c ****   __HAL_UART_DISABLE(huart);
 402:Drivers/STM32G0xx_HAL_Driver/Src/stm32g0xx_hal_uart_ex.c **** 
 403:Drivers/STM32G0xx_HAL_Driver/Src/stm32g0xx_hal_uart_ex.c ****   /* Set the address length */
 404:Drivers/STM32G0xx_HAL_Driver/Src/stm32g0xx_hal_uart_ex.c ****   MODIFY_REG(huart->Instance->CR2, USART_CR2_ADDM7, AddressLength);
 405:Drivers/STM32G0xx_HAL_Driver/Src/stm32g0xx_hal_uart_ex.c **** 
 406:Drivers/STM32G0xx_HAL_Driver/Src/stm32g0xx_hal_uart_ex.c ****   /* Enable the Peripheral */
 407:Drivers/STM32G0xx_HAL_Driver/Src/stm32g0xx_hal_uart_ex.c ****   __HAL_UART_ENABLE(huart);
 408:Drivers/STM32G0xx_HAL_Driver/Src/stm32g0xx_hal_uart_ex.c **** 
 409:Drivers/STM32G0xx_HAL_Driver/Src/stm32g0xx_hal_uart_ex.c ****   /* TEACK and/or REACK to check before moving huart->gState to Ready */
 410:Drivers/STM32G0xx_HAL_Driver/Src/stm32g0xx_hal_uart_ex.c ****   return (UART_CheckIdleState(huart));
 411:Drivers/STM32G0xx_HAL_Driver/Src/stm32g0xx_hal_uart_ex.c **** }
 412:Drivers/STM32G0xx_HAL_Driver/Src/stm32g0xx_hal_uart_ex.c **** 
 413:Drivers/STM32G0xx_HAL_Driver/Src/stm32g0xx_hal_uart_ex.c **** /**
 414:Drivers/STM32G0xx_HAL_Driver/Src/stm32g0xx_hal_uart_ex.c ****   * @brief Set Wakeup from Stop mode interrupt flag selection.
 415:Drivers/STM32G0xx_HAL_Driver/Src/stm32g0xx_hal_uart_ex.c ****   * @note It is the application responsibility to enable the interrupt used as
 416:Drivers/STM32G0xx_HAL_Driver/Src/stm32g0xx_hal_uart_ex.c ****   *       usart_wkup interrupt source before entering low-power mode.
 417:Drivers/STM32G0xx_HAL_Driver/Src/stm32g0xx_hal_uart_ex.c ****   * @param huart           UART handle.
 418:Drivers/STM32G0xx_HAL_Driver/Src/stm32g0xx_hal_uart_ex.c ****   * @param WakeUpSelection Address match, Start Bit detection or RXNE/RXFNE bit status.
 419:Drivers/STM32G0xx_HAL_Driver/Src/stm32g0xx_hal_uart_ex.c ****   *          This parameter can be one of the following values:
 420:Drivers/STM32G0xx_HAL_Driver/Src/stm32g0xx_hal_uart_ex.c ****   *          @arg @ref UART_WAKEUP_ON_ADDRESS
 421:Drivers/STM32G0xx_HAL_Driver/Src/stm32g0xx_hal_uart_ex.c ****   *          @arg @ref UART_WAKEUP_ON_STARTBIT
 422:Drivers/STM32G0xx_HAL_Driver/Src/stm32g0xx_hal_uart_ex.c ****   *          @arg @ref UART_WAKEUP_ON_READDATA_NONEMPTY
 423:Drivers/STM32G0xx_HAL_Driver/Src/stm32g0xx_hal_uart_ex.c ****   * @retval HAL status
 424:Drivers/STM32G0xx_HAL_Driver/Src/stm32g0xx_hal_uart_ex.c ****   */
 425:Drivers/STM32G0xx_HAL_Driver/Src/stm32g0xx_hal_uart_ex.c **** HAL_StatusTypeDef HAL_UARTEx_StopModeWakeUpSourceConfig(UART_HandleTypeDef *huart, UART_WakeUpTypeD
 426:Drivers/STM32G0xx_HAL_Driver/Src/stm32g0xx_hal_uart_ex.c **** {
 427:Drivers/STM32G0xx_HAL_Driver/Src/stm32g0xx_hal_uart_ex.c ****   HAL_StatusTypeDef status = HAL_OK;
 428:Drivers/STM32G0xx_HAL_Driver/Src/stm32g0xx_hal_uart_ex.c ****   uint32_t tickstart;
 429:Drivers/STM32G0xx_HAL_Driver/Src/stm32g0xx_hal_uart_ex.c **** 
 430:Drivers/STM32G0xx_HAL_Driver/Src/stm32g0xx_hal_uart_ex.c ****   /* check the wake-up from stop mode UART instance */
 431:Drivers/STM32G0xx_HAL_Driver/Src/stm32g0xx_hal_uart_ex.c ****   assert_param(IS_UART_WAKEUP_FROMSTOP_INSTANCE(huart->Instance));
ARM GAS  C:\Users\W_LINU~1\AppData\Local\Temp\ccQ78mwl.s 			page 9


 432:Drivers/STM32G0xx_HAL_Driver/Src/stm32g0xx_hal_uart_ex.c ****   /* check the wake-up selection parameter */
 433:Drivers/STM32G0xx_HAL_Driver/Src/stm32g0xx_hal_uart_ex.c ****   assert_param(IS_UART_WAKEUP_SELECTION(WakeUpSelection.WakeUpEvent));
 434:Drivers/STM32G0xx_HAL_Driver/Src/stm32g0xx_hal_uart_ex.c **** 
 435:Drivers/STM32G0xx_HAL_Driver/Src/stm32g0xx_hal_uart_ex.c ****   /* Process Locked */
 436:Drivers/STM32G0xx_HAL_Driver/Src/stm32g0xx_hal_uart_ex.c ****   __HAL_LOCK(huart);
 437:Drivers/STM32G0xx_HAL_Driver/Src/stm32g0xx_hal_uart_ex.c **** 
 438:Drivers/STM32G0xx_HAL_Driver/Src/stm32g0xx_hal_uart_ex.c ****   huart->gState = HAL_UART_STATE_BUSY;
 439:Drivers/STM32G0xx_HAL_Driver/Src/stm32g0xx_hal_uart_ex.c **** 
 440:Drivers/STM32G0xx_HAL_Driver/Src/stm32g0xx_hal_uart_ex.c ****   /* Disable the Peripheral */
 441:Drivers/STM32G0xx_HAL_Driver/Src/stm32g0xx_hal_uart_ex.c ****   __HAL_UART_DISABLE(huart);
 442:Drivers/STM32G0xx_HAL_Driver/Src/stm32g0xx_hal_uart_ex.c **** 
 443:Drivers/STM32G0xx_HAL_Driver/Src/stm32g0xx_hal_uart_ex.c ****   /* Set the wake-up selection scheme */
 444:Drivers/STM32G0xx_HAL_Driver/Src/stm32g0xx_hal_uart_ex.c ****   MODIFY_REG(huart->Instance->CR3, USART_CR3_WUS, WakeUpSelection.WakeUpEvent);
 445:Drivers/STM32G0xx_HAL_Driver/Src/stm32g0xx_hal_uart_ex.c **** 
 446:Drivers/STM32G0xx_HAL_Driver/Src/stm32g0xx_hal_uart_ex.c ****   if (WakeUpSelection.WakeUpEvent == UART_WAKEUP_ON_ADDRESS)
 447:Drivers/STM32G0xx_HAL_Driver/Src/stm32g0xx_hal_uart_ex.c ****   {
 448:Drivers/STM32G0xx_HAL_Driver/Src/stm32g0xx_hal_uart_ex.c ****     UARTEx_Wakeup_AddressConfig(huart, WakeUpSelection);
 449:Drivers/STM32G0xx_HAL_Driver/Src/stm32g0xx_hal_uart_ex.c ****   }
 450:Drivers/STM32G0xx_HAL_Driver/Src/stm32g0xx_hal_uart_ex.c **** 
 451:Drivers/STM32G0xx_HAL_Driver/Src/stm32g0xx_hal_uart_ex.c ****   /* Enable the Peripheral */
 452:Drivers/STM32G0xx_HAL_Driver/Src/stm32g0xx_hal_uart_ex.c ****   __HAL_UART_ENABLE(huart);
 453:Drivers/STM32G0xx_HAL_Driver/Src/stm32g0xx_hal_uart_ex.c **** 
 454:Drivers/STM32G0xx_HAL_Driver/Src/stm32g0xx_hal_uart_ex.c ****   /* Init tickstart for timeout management */
 455:Drivers/STM32G0xx_HAL_Driver/Src/stm32g0xx_hal_uart_ex.c ****   tickstart = HAL_GetTick();
 456:Drivers/STM32G0xx_HAL_Driver/Src/stm32g0xx_hal_uart_ex.c **** 
 457:Drivers/STM32G0xx_HAL_Driver/Src/stm32g0xx_hal_uart_ex.c ****   /* Wait until REACK flag is set */
 458:Drivers/STM32G0xx_HAL_Driver/Src/stm32g0xx_hal_uart_ex.c ****   if (UART_WaitOnFlagUntilTimeout(huart, USART_ISR_REACK, RESET, tickstart, HAL_UART_TIMEOUT_VALUE)
 459:Drivers/STM32G0xx_HAL_Driver/Src/stm32g0xx_hal_uart_ex.c ****   {
 460:Drivers/STM32G0xx_HAL_Driver/Src/stm32g0xx_hal_uart_ex.c ****     status = HAL_TIMEOUT;
 461:Drivers/STM32G0xx_HAL_Driver/Src/stm32g0xx_hal_uart_ex.c ****   }
 462:Drivers/STM32G0xx_HAL_Driver/Src/stm32g0xx_hal_uart_ex.c ****   else
 463:Drivers/STM32G0xx_HAL_Driver/Src/stm32g0xx_hal_uart_ex.c ****   {
 464:Drivers/STM32G0xx_HAL_Driver/Src/stm32g0xx_hal_uart_ex.c ****     /* Initialize the UART State */
 465:Drivers/STM32G0xx_HAL_Driver/Src/stm32g0xx_hal_uart_ex.c ****     huart->gState = HAL_UART_STATE_READY;
 466:Drivers/STM32G0xx_HAL_Driver/Src/stm32g0xx_hal_uart_ex.c ****   }
 467:Drivers/STM32G0xx_HAL_Driver/Src/stm32g0xx_hal_uart_ex.c **** 
 468:Drivers/STM32G0xx_HAL_Driver/Src/stm32g0xx_hal_uart_ex.c ****   /* Process Unlocked */
 469:Drivers/STM32G0xx_HAL_Driver/Src/stm32g0xx_hal_uart_ex.c ****   __HAL_UNLOCK(huart);
 470:Drivers/STM32G0xx_HAL_Driver/Src/stm32g0xx_hal_uart_ex.c **** 
 471:Drivers/STM32G0xx_HAL_Driver/Src/stm32g0xx_hal_uart_ex.c ****   return status;
 472:Drivers/STM32G0xx_HAL_Driver/Src/stm32g0xx_hal_uart_ex.c **** }
 473:Drivers/STM32G0xx_HAL_Driver/Src/stm32g0xx_hal_uart_ex.c **** 
 474:Drivers/STM32G0xx_HAL_Driver/Src/stm32g0xx_hal_uart_ex.c **** /**
 475:Drivers/STM32G0xx_HAL_Driver/Src/stm32g0xx_hal_uart_ex.c ****   * @brief Enable UART Stop Mode.
 476:Drivers/STM32G0xx_HAL_Driver/Src/stm32g0xx_hal_uart_ex.c ****   * @note The UART is able to wake up the MCU from Stop 1 mode as long as UART clock is HSI or LSE.
 477:Drivers/STM32G0xx_HAL_Driver/Src/stm32g0xx_hal_uart_ex.c ****   * @param huart UART handle.
 478:Drivers/STM32G0xx_HAL_Driver/Src/stm32g0xx_hal_uart_ex.c ****   * @retval HAL status
 479:Drivers/STM32G0xx_HAL_Driver/Src/stm32g0xx_hal_uart_ex.c ****   */
 480:Drivers/STM32G0xx_HAL_Driver/Src/stm32g0xx_hal_uart_ex.c **** HAL_StatusTypeDef HAL_UARTEx_EnableStopMode(UART_HandleTypeDef *huart)
 481:Drivers/STM32G0xx_HAL_Driver/Src/stm32g0xx_hal_uart_ex.c **** {
 482:Drivers/STM32G0xx_HAL_Driver/Src/stm32g0xx_hal_uart_ex.c ****   /* Process Locked */
 483:Drivers/STM32G0xx_HAL_Driver/Src/stm32g0xx_hal_uart_ex.c ****   __HAL_LOCK(huart);
 484:Drivers/STM32G0xx_HAL_Driver/Src/stm32g0xx_hal_uart_ex.c **** 
 485:Drivers/STM32G0xx_HAL_Driver/Src/stm32g0xx_hal_uart_ex.c ****   /* Set UESM bit */
 486:Drivers/STM32G0xx_HAL_Driver/Src/stm32g0xx_hal_uart_ex.c ****   ATOMIC_SET_BIT(huart->Instance->CR1, USART_CR1_UESM);
 487:Drivers/STM32G0xx_HAL_Driver/Src/stm32g0xx_hal_uart_ex.c **** 
 488:Drivers/STM32G0xx_HAL_Driver/Src/stm32g0xx_hal_uart_ex.c ****   /* Process Unlocked */
ARM GAS  C:\Users\W_LINU~1\AppData\Local\Temp\ccQ78mwl.s 			page 10


 489:Drivers/STM32G0xx_HAL_Driver/Src/stm32g0xx_hal_uart_ex.c ****   __HAL_UNLOCK(huart);
 490:Drivers/STM32G0xx_HAL_Driver/Src/stm32g0xx_hal_uart_ex.c **** 
 491:Drivers/STM32G0xx_HAL_Driver/Src/stm32g0xx_hal_uart_ex.c ****   return HAL_OK;
 492:Drivers/STM32G0xx_HAL_Driver/Src/stm32g0xx_hal_uart_ex.c **** }
 493:Drivers/STM32G0xx_HAL_Driver/Src/stm32g0xx_hal_uart_ex.c **** 
 494:Drivers/STM32G0xx_HAL_Driver/Src/stm32g0xx_hal_uart_ex.c **** /**
 495:Drivers/STM32G0xx_HAL_Driver/Src/stm32g0xx_hal_uart_ex.c ****   * @brief Disable UART Stop Mode.
 496:Drivers/STM32G0xx_HAL_Driver/Src/stm32g0xx_hal_uart_ex.c ****   * @param huart UART handle.
 497:Drivers/STM32G0xx_HAL_Driver/Src/stm32g0xx_hal_uart_ex.c ****   * @retval HAL status
 498:Drivers/STM32G0xx_HAL_Driver/Src/stm32g0xx_hal_uart_ex.c ****   */
 499:Drivers/STM32G0xx_HAL_Driver/Src/stm32g0xx_hal_uart_ex.c **** HAL_StatusTypeDef HAL_UARTEx_DisableStopMode(UART_HandleTypeDef *huart)
 500:Drivers/STM32G0xx_HAL_Driver/Src/stm32g0xx_hal_uart_ex.c **** {
 501:Drivers/STM32G0xx_HAL_Driver/Src/stm32g0xx_hal_uart_ex.c ****   /* Process Locked */
 502:Drivers/STM32G0xx_HAL_Driver/Src/stm32g0xx_hal_uart_ex.c ****   __HAL_LOCK(huart);
 503:Drivers/STM32G0xx_HAL_Driver/Src/stm32g0xx_hal_uart_ex.c **** 
 504:Drivers/STM32G0xx_HAL_Driver/Src/stm32g0xx_hal_uart_ex.c ****   /* Clear UESM bit */
 505:Drivers/STM32G0xx_HAL_Driver/Src/stm32g0xx_hal_uart_ex.c ****   ATOMIC_CLEAR_BIT(huart->Instance->CR1, USART_CR1_UESM);
 506:Drivers/STM32G0xx_HAL_Driver/Src/stm32g0xx_hal_uart_ex.c **** 
 507:Drivers/STM32G0xx_HAL_Driver/Src/stm32g0xx_hal_uart_ex.c ****   /* Process Unlocked */
 508:Drivers/STM32G0xx_HAL_Driver/Src/stm32g0xx_hal_uart_ex.c ****   __HAL_UNLOCK(huart);
 509:Drivers/STM32G0xx_HAL_Driver/Src/stm32g0xx_hal_uart_ex.c **** 
 510:Drivers/STM32G0xx_HAL_Driver/Src/stm32g0xx_hal_uart_ex.c ****   return HAL_OK;
 511:Drivers/STM32G0xx_HAL_Driver/Src/stm32g0xx_hal_uart_ex.c **** }
 512:Drivers/STM32G0xx_HAL_Driver/Src/stm32g0xx_hal_uart_ex.c **** 
 513:Drivers/STM32G0xx_HAL_Driver/Src/stm32g0xx_hal_uart_ex.c **** /**
 514:Drivers/STM32G0xx_HAL_Driver/Src/stm32g0xx_hal_uart_ex.c ****   * @brief  Enable the FIFO mode.
 515:Drivers/STM32G0xx_HAL_Driver/Src/stm32g0xx_hal_uart_ex.c ****   * @param huart      UART handle.
 516:Drivers/STM32G0xx_HAL_Driver/Src/stm32g0xx_hal_uart_ex.c ****   * @retval HAL status
 517:Drivers/STM32G0xx_HAL_Driver/Src/stm32g0xx_hal_uart_ex.c ****   */
 518:Drivers/STM32G0xx_HAL_Driver/Src/stm32g0xx_hal_uart_ex.c **** HAL_StatusTypeDef HAL_UARTEx_EnableFifoMode(UART_HandleTypeDef *huart)
 519:Drivers/STM32G0xx_HAL_Driver/Src/stm32g0xx_hal_uart_ex.c **** {
 520:Drivers/STM32G0xx_HAL_Driver/Src/stm32g0xx_hal_uart_ex.c ****   uint32_t tmpcr1;
 521:Drivers/STM32G0xx_HAL_Driver/Src/stm32g0xx_hal_uart_ex.c **** 
 522:Drivers/STM32G0xx_HAL_Driver/Src/stm32g0xx_hal_uart_ex.c ****   /* Check parameters */
 523:Drivers/STM32G0xx_HAL_Driver/Src/stm32g0xx_hal_uart_ex.c ****   assert_param(IS_UART_FIFO_INSTANCE(huart->Instance));
 524:Drivers/STM32G0xx_HAL_Driver/Src/stm32g0xx_hal_uart_ex.c **** 
 525:Drivers/STM32G0xx_HAL_Driver/Src/stm32g0xx_hal_uart_ex.c ****   /* Process Locked */
 526:Drivers/STM32G0xx_HAL_Driver/Src/stm32g0xx_hal_uart_ex.c ****   __HAL_LOCK(huart);
 527:Drivers/STM32G0xx_HAL_Driver/Src/stm32g0xx_hal_uart_ex.c **** 
 528:Drivers/STM32G0xx_HAL_Driver/Src/stm32g0xx_hal_uart_ex.c ****   huart->gState = HAL_UART_STATE_BUSY;
 529:Drivers/STM32G0xx_HAL_Driver/Src/stm32g0xx_hal_uart_ex.c **** 
 530:Drivers/STM32G0xx_HAL_Driver/Src/stm32g0xx_hal_uart_ex.c ****   /* Save actual UART configuration */
 531:Drivers/STM32G0xx_HAL_Driver/Src/stm32g0xx_hal_uart_ex.c ****   tmpcr1 = READ_REG(huart->Instance->CR1);
 532:Drivers/STM32G0xx_HAL_Driver/Src/stm32g0xx_hal_uart_ex.c **** 
 533:Drivers/STM32G0xx_HAL_Driver/Src/stm32g0xx_hal_uart_ex.c ****   /* Disable UART */
 534:Drivers/STM32G0xx_HAL_Driver/Src/stm32g0xx_hal_uart_ex.c ****   __HAL_UART_DISABLE(huart);
 535:Drivers/STM32G0xx_HAL_Driver/Src/stm32g0xx_hal_uart_ex.c **** 
 536:Drivers/STM32G0xx_HAL_Driver/Src/stm32g0xx_hal_uart_ex.c ****   /* Enable FIFO mode */
 537:Drivers/STM32G0xx_HAL_Driver/Src/stm32g0xx_hal_uart_ex.c ****   SET_BIT(tmpcr1, USART_CR1_FIFOEN);
 538:Drivers/STM32G0xx_HAL_Driver/Src/stm32g0xx_hal_uart_ex.c ****   huart->FifoMode = UART_FIFOMODE_ENABLE;
 539:Drivers/STM32G0xx_HAL_Driver/Src/stm32g0xx_hal_uart_ex.c **** 
 540:Drivers/STM32G0xx_HAL_Driver/Src/stm32g0xx_hal_uart_ex.c ****   /* Restore UART configuration */
 541:Drivers/STM32G0xx_HAL_Driver/Src/stm32g0xx_hal_uart_ex.c ****   WRITE_REG(huart->Instance->CR1, tmpcr1);
 542:Drivers/STM32G0xx_HAL_Driver/Src/stm32g0xx_hal_uart_ex.c **** 
 543:Drivers/STM32G0xx_HAL_Driver/Src/stm32g0xx_hal_uart_ex.c ****   /* Determine the number of data to process during RX/TX ISR execution */
 544:Drivers/STM32G0xx_HAL_Driver/Src/stm32g0xx_hal_uart_ex.c ****   UARTEx_SetNbDataToProcess(huart);
 545:Drivers/STM32G0xx_HAL_Driver/Src/stm32g0xx_hal_uart_ex.c **** 
ARM GAS  C:\Users\W_LINU~1\AppData\Local\Temp\ccQ78mwl.s 			page 11


 546:Drivers/STM32G0xx_HAL_Driver/Src/stm32g0xx_hal_uart_ex.c ****   huart->gState = HAL_UART_STATE_READY;
 547:Drivers/STM32G0xx_HAL_Driver/Src/stm32g0xx_hal_uart_ex.c **** 
 548:Drivers/STM32G0xx_HAL_Driver/Src/stm32g0xx_hal_uart_ex.c ****   /* Process Unlocked */
 549:Drivers/STM32G0xx_HAL_Driver/Src/stm32g0xx_hal_uart_ex.c ****   __HAL_UNLOCK(huart);
 550:Drivers/STM32G0xx_HAL_Driver/Src/stm32g0xx_hal_uart_ex.c **** 
 551:Drivers/STM32G0xx_HAL_Driver/Src/stm32g0xx_hal_uart_ex.c ****   return HAL_OK;
 552:Drivers/STM32G0xx_HAL_Driver/Src/stm32g0xx_hal_uart_ex.c **** }
 553:Drivers/STM32G0xx_HAL_Driver/Src/stm32g0xx_hal_uart_ex.c **** 
 554:Drivers/STM32G0xx_HAL_Driver/Src/stm32g0xx_hal_uart_ex.c **** /**
 555:Drivers/STM32G0xx_HAL_Driver/Src/stm32g0xx_hal_uart_ex.c ****   * @brief  Disable the FIFO mode.
 556:Drivers/STM32G0xx_HAL_Driver/Src/stm32g0xx_hal_uart_ex.c ****   * @param huart      UART handle.
 557:Drivers/STM32G0xx_HAL_Driver/Src/stm32g0xx_hal_uart_ex.c ****   * @retval HAL status
 558:Drivers/STM32G0xx_HAL_Driver/Src/stm32g0xx_hal_uart_ex.c ****   */
 559:Drivers/STM32G0xx_HAL_Driver/Src/stm32g0xx_hal_uart_ex.c **** HAL_StatusTypeDef HAL_UARTEx_DisableFifoMode(UART_HandleTypeDef *huart)
 560:Drivers/STM32G0xx_HAL_Driver/Src/stm32g0xx_hal_uart_ex.c **** {
 561:Drivers/STM32G0xx_HAL_Driver/Src/stm32g0xx_hal_uart_ex.c ****   uint32_t tmpcr1;
 562:Drivers/STM32G0xx_HAL_Driver/Src/stm32g0xx_hal_uart_ex.c **** 
 563:Drivers/STM32G0xx_HAL_Driver/Src/stm32g0xx_hal_uart_ex.c ****   /* Check parameters */
 564:Drivers/STM32G0xx_HAL_Driver/Src/stm32g0xx_hal_uart_ex.c ****   assert_param(IS_UART_FIFO_INSTANCE(huart->Instance));
 565:Drivers/STM32G0xx_HAL_Driver/Src/stm32g0xx_hal_uart_ex.c **** 
 566:Drivers/STM32G0xx_HAL_Driver/Src/stm32g0xx_hal_uart_ex.c ****   /* Process Locked */
 567:Drivers/STM32G0xx_HAL_Driver/Src/stm32g0xx_hal_uart_ex.c ****   __HAL_LOCK(huart);
 568:Drivers/STM32G0xx_HAL_Driver/Src/stm32g0xx_hal_uart_ex.c **** 
 569:Drivers/STM32G0xx_HAL_Driver/Src/stm32g0xx_hal_uart_ex.c ****   huart->gState = HAL_UART_STATE_BUSY;
 570:Drivers/STM32G0xx_HAL_Driver/Src/stm32g0xx_hal_uart_ex.c **** 
 571:Drivers/STM32G0xx_HAL_Driver/Src/stm32g0xx_hal_uart_ex.c ****   /* Save actual UART configuration */
 572:Drivers/STM32G0xx_HAL_Driver/Src/stm32g0xx_hal_uart_ex.c ****   tmpcr1 = READ_REG(huart->Instance->CR1);
 573:Drivers/STM32G0xx_HAL_Driver/Src/stm32g0xx_hal_uart_ex.c **** 
 574:Drivers/STM32G0xx_HAL_Driver/Src/stm32g0xx_hal_uart_ex.c ****   /* Disable UART */
 575:Drivers/STM32G0xx_HAL_Driver/Src/stm32g0xx_hal_uart_ex.c ****   __HAL_UART_DISABLE(huart);
 576:Drivers/STM32G0xx_HAL_Driver/Src/stm32g0xx_hal_uart_ex.c **** 
 577:Drivers/STM32G0xx_HAL_Driver/Src/stm32g0xx_hal_uart_ex.c ****   /* Enable FIFO mode */
 578:Drivers/STM32G0xx_HAL_Driver/Src/stm32g0xx_hal_uart_ex.c ****   CLEAR_BIT(tmpcr1, USART_CR1_FIFOEN);
 579:Drivers/STM32G0xx_HAL_Driver/Src/stm32g0xx_hal_uart_ex.c ****   huart->FifoMode = UART_FIFOMODE_DISABLE;
 580:Drivers/STM32G0xx_HAL_Driver/Src/stm32g0xx_hal_uart_ex.c **** 
 581:Drivers/STM32G0xx_HAL_Driver/Src/stm32g0xx_hal_uart_ex.c ****   /* Restore UART configuration */
 582:Drivers/STM32G0xx_HAL_Driver/Src/stm32g0xx_hal_uart_ex.c ****   WRITE_REG(huart->Instance->CR1, tmpcr1);
 583:Drivers/STM32G0xx_HAL_Driver/Src/stm32g0xx_hal_uart_ex.c **** 
 584:Drivers/STM32G0xx_HAL_Driver/Src/stm32g0xx_hal_uart_ex.c ****   huart->gState = HAL_UART_STATE_READY;
 585:Drivers/STM32G0xx_HAL_Driver/Src/stm32g0xx_hal_uart_ex.c **** 
 586:Drivers/STM32G0xx_HAL_Driver/Src/stm32g0xx_hal_uart_ex.c ****   /* Process Unlocked */
 587:Drivers/STM32G0xx_HAL_Driver/Src/stm32g0xx_hal_uart_ex.c ****   __HAL_UNLOCK(huart);
 588:Drivers/STM32G0xx_HAL_Driver/Src/stm32g0xx_hal_uart_ex.c **** 
 589:Drivers/STM32G0xx_HAL_Driver/Src/stm32g0xx_hal_uart_ex.c ****   return HAL_OK;
 590:Drivers/STM32G0xx_HAL_Driver/Src/stm32g0xx_hal_uart_ex.c **** }
 591:Drivers/STM32G0xx_HAL_Driver/Src/stm32g0xx_hal_uart_ex.c **** 
 592:Drivers/STM32G0xx_HAL_Driver/Src/stm32g0xx_hal_uart_ex.c **** /**
 593:Drivers/STM32G0xx_HAL_Driver/Src/stm32g0xx_hal_uart_ex.c ****   * @brief  Set the TXFIFO threshold.
 594:Drivers/STM32G0xx_HAL_Driver/Src/stm32g0xx_hal_uart_ex.c ****   * @param huart      UART handle.
 595:Drivers/STM32G0xx_HAL_Driver/Src/stm32g0xx_hal_uart_ex.c ****   * @param Threshold  TX FIFO threshold value
 596:Drivers/STM32G0xx_HAL_Driver/Src/stm32g0xx_hal_uart_ex.c ****   *          This parameter can be one of the following values:
 597:Drivers/STM32G0xx_HAL_Driver/Src/stm32g0xx_hal_uart_ex.c ****   *            @arg @ref UART_TXFIFO_THRESHOLD_1_8
 598:Drivers/STM32G0xx_HAL_Driver/Src/stm32g0xx_hal_uart_ex.c ****   *            @arg @ref UART_TXFIFO_THRESHOLD_1_4
 599:Drivers/STM32G0xx_HAL_Driver/Src/stm32g0xx_hal_uart_ex.c ****   *            @arg @ref UART_TXFIFO_THRESHOLD_1_2
 600:Drivers/STM32G0xx_HAL_Driver/Src/stm32g0xx_hal_uart_ex.c ****   *            @arg @ref UART_TXFIFO_THRESHOLD_3_4
 601:Drivers/STM32G0xx_HAL_Driver/Src/stm32g0xx_hal_uart_ex.c ****   *            @arg @ref UART_TXFIFO_THRESHOLD_7_8
 602:Drivers/STM32G0xx_HAL_Driver/Src/stm32g0xx_hal_uart_ex.c ****   *            @arg @ref UART_TXFIFO_THRESHOLD_8_8
ARM GAS  C:\Users\W_LINU~1\AppData\Local\Temp\ccQ78mwl.s 			page 12


 603:Drivers/STM32G0xx_HAL_Driver/Src/stm32g0xx_hal_uart_ex.c ****   * @retval HAL status
 604:Drivers/STM32G0xx_HAL_Driver/Src/stm32g0xx_hal_uart_ex.c ****   */
 605:Drivers/STM32G0xx_HAL_Driver/Src/stm32g0xx_hal_uart_ex.c **** HAL_StatusTypeDef HAL_UARTEx_SetTxFifoThreshold(UART_HandleTypeDef *huart, uint32_t Threshold)
 606:Drivers/STM32G0xx_HAL_Driver/Src/stm32g0xx_hal_uart_ex.c **** {
 607:Drivers/STM32G0xx_HAL_Driver/Src/stm32g0xx_hal_uart_ex.c ****   uint32_t tmpcr1;
 608:Drivers/STM32G0xx_HAL_Driver/Src/stm32g0xx_hal_uart_ex.c **** 
 609:Drivers/STM32G0xx_HAL_Driver/Src/stm32g0xx_hal_uart_ex.c ****   /* Check parameters */
 610:Drivers/STM32G0xx_HAL_Driver/Src/stm32g0xx_hal_uart_ex.c ****   assert_param(IS_UART_FIFO_INSTANCE(huart->Instance));
 611:Drivers/STM32G0xx_HAL_Driver/Src/stm32g0xx_hal_uart_ex.c ****   assert_param(IS_UART_TXFIFO_THRESHOLD(Threshold));
 612:Drivers/STM32G0xx_HAL_Driver/Src/stm32g0xx_hal_uart_ex.c **** 
 613:Drivers/STM32G0xx_HAL_Driver/Src/stm32g0xx_hal_uart_ex.c ****   /* Process Locked */
 614:Drivers/STM32G0xx_HAL_Driver/Src/stm32g0xx_hal_uart_ex.c ****   __HAL_LOCK(huart);
 615:Drivers/STM32G0xx_HAL_Driver/Src/stm32g0xx_hal_uart_ex.c **** 
 616:Drivers/STM32G0xx_HAL_Driver/Src/stm32g0xx_hal_uart_ex.c ****   huart->gState = HAL_UART_STATE_BUSY;
 617:Drivers/STM32G0xx_HAL_Driver/Src/stm32g0xx_hal_uart_ex.c **** 
 618:Drivers/STM32G0xx_HAL_Driver/Src/stm32g0xx_hal_uart_ex.c ****   /* Save actual UART configuration */
 619:Drivers/STM32G0xx_HAL_Driver/Src/stm32g0xx_hal_uart_ex.c ****   tmpcr1 = READ_REG(huart->Instance->CR1);
 620:Drivers/STM32G0xx_HAL_Driver/Src/stm32g0xx_hal_uart_ex.c **** 
 621:Drivers/STM32G0xx_HAL_Driver/Src/stm32g0xx_hal_uart_ex.c ****   /* Disable UART */
 622:Drivers/STM32G0xx_HAL_Driver/Src/stm32g0xx_hal_uart_ex.c ****   __HAL_UART_DISABLE(huart);
 623:Drivers/STM32G0xx_HAL_Driver/Src/stm32g0xx_hal_uart_ex.c **** 
 624:Drivers/STM32G0xx_HAL_Driver/Src/stm32g0xx_hal_uart_ex.c ****   /* Update TX threshold configuration */
 625:Drivers/STM32G0xx_HAL_Driver/Src/stm32g0xx_hal_uart_ex.c ****   MODIFY_REG(huart->Instance->CR3, USART_CR3_TXFTCFG, Threshold);
 626:Drivers/STM32G0xx_HAL_Driver/Src/stm32g0xx_hal_uart_ex.c **** 
 627:Drivers/STM32G0xx_HAL_Driver/Src/stm32g0xx_hal_uart_ex.c ****   /* Determine the number of data to process during RX/TX ISR execution */
 628:Drivers/STM32G0xx_HAL_Driver/Src/stm32g0xx_hal_uart_ex.c ****   UARTEx_SetNbDataToProcess(huart);
 629:Drivers/STM32G0xx_HAL_Driver/Src/stm32g0xx_hal_uart_ex.c **** 
 630:Drivers/STM32G0xx_HAL_Driver/Src/stm32g0xx_hal_uart_ex.c ****   /* Restore UART configuration */
 631:Drivers/STM32G0xx_HAL_Driver/Src/stm32g0xx_hal_uart_ex.c ****   WRITE_REG(huart->Instance->CR1, tmpcr1);
 632:Drivers/STM32G0xx_HAL_Driver/Src/stm32g0xx_hal_uart_ex.c **** 
 633:Drivers/STM32G0xx_HAL_Driver/Src/stm32g0xx_hal_uart_ex.c ****   huart->gState = HAL_UART_STATE_READY;
 634:Drivers/STM32G0xx_HAL_Driver/Src/stm32g0xx_hal_uart_ex.c **** 
 635:Drivers/STM32G0xx_HAL_Driver/Src/stm32g0xx_hal_uart_ex.c ****   /* Process Unlocked */
 636:Drivers/STM32G0xx_HAL_Driver/Src/stm32g0xx_hal_uart_ex.c ****   __HAL_UNLOCK(huart);
 637:Drivers/STM32G0xx_HAL_Driver/Src/stm32g0xx_hal_uart_ex.c **** 
 638:Drivers/STM32G0xx_HAL_Driver/Src/stm32g0xx_hal_uart_ex.c ****   return HAL_OK;
 639:Drivers/STM32G0xx_HAL_Driver/Src/stm32g0xx_hal_uart_ex.c **** }
 640:Drivers/STM32G0xx_HAL_Driver/Src/stm32g0xx_hal_uart_ex.c **** 
 641:Drivers/STM32G0xx_HAL_Driver/Src/stm32g0xx_hal_uart_ex.c **** /**
 642:Drivers/STM32G0xx_HAL_Driver/Src/stm32g0xx_hal_uart_ex.c ****   * @brief  Set the RXFIFO threshold.
 643:Drivers/STM32G0xx_HAL_Driver/Src/stm32g0xx_hal_uart_ex.c ****   * @param huart      UART handle.
 644:Drivers/STM32G0xx_HAL_Driver/Src/stm32g0xx_hal_uart_ex.c ****   * @param Threshold  RX FIFO threshold value
 645:Drivers/STM32G0xx_HAL_Driver/Src/stm32g0xx_hal_uart_ex.c ****   *          This parameter can be one of the following values:
 646:Drivers/STM32G0xx_HAL_Driver/Src/stm32g0xx_hal_uart_ex.c ****   *            @arg @ref UART_RXFIFO_THRESHOLD_1_8
 647:Drivers/STM32G0xx_HAL_Driver/Src/stm32g0xx_hal_uart_ex.c ****   *            @arg @ref UART_RXFIFO_THRESHOLD_1_4
 648:Drivers/STM32G0xx_HAL_Driver/Src/stm32g0xx_hal_uart_ex.c ****   *            @arg @ref UART_RXFIFO_THRESHOLD_1_2
 649:Drivers/STM32G0xx_HAL_Driver/Src/stm32g0xx_hal_uart_ex.c ****   *            @arg @ref UART_RXFIFO_THRESHOLD_3_4
 650:Drivers/STM32G0xx_HAL_Driver/Src/stm32g0xx_hal_uart_ex.c ****   *            @arg @ref UART_RXFIFO_THRESHOLD_7_8
 651:Drivers/STM32G0xx_HAL_Driver/Src/stm32g0xx_hal_uart_ex.c ****   *            @arg @ref UART_RXFIFO_THRESHOLD_8_8
 652:Drivers/STM32G0xx_HAL_Driver/Src/stm32g0xx_hal_uart_ex.c ****   * @retval HAL status
 653:Drivers/STM32G0xx_HAL_Driver/Src/stm32g0xx_hal_uart_ex.c ****   */
 654:Drivers/STM32G0xx_HAL_Driver/Src/stm32g0xx_hal_uart_ex.c **** HAL_StatusTypeDef HAL_UARTEx_SetRxFifoThreshold(UART_HandleTypeDef *huart, uint32_t Threshold)
 655:Drivers/STM32G0xx_HAL_Driver/Src/stm32g0xx_hal_uart_ex.c **** {
 656:Drivers/STM32G0xx_HAL_Driver/Src/stm32g0xx_hal_uart_ex.c ****   uint32_t tmpcr1;
 657:Drivers/STM32G0xx_HAL_Driver/Src/stm32g0xx_hal_uart_ex.c **** 
 658:Drivers/STM32G0xx_HAL_Driver/Src/stm32g0xx_hal_uart_ex.c ****   /* Check the parameters */
 659:Drivers/STM32G0xx_HAL_Driver/Src/stm32g0xx_hal_uart_ex.c ****   assert_param(IS_UART_FIFO_INSTANCE(huart->Instance));
ARM GAS  C:\Users\W_LINU~1\AppData\Local\Temp\ccQ78mwl.s 			page 13


 660:Drivers/STM32G0xx_HAL_Driver/Src/stm32g0xx_hal_uart_ex.c ****   assert_param(IS_UART_RXFIFO_THRESHOLD(Threshold));
 661:Drivers/STM32G0xx_HAL_Driver/Src/stm32g0xx_hal_uart_ex.c **** 
 662:Drivers/STM32G0xx_HAL_Driver/Src/stm32g0xx_hal_uart_ex.c ****   /* Process Locked */
 663:Drivers/STM32G0xx_HAL_Driver/Src/stm32g0xx_hal_uart_ex.c ****   __HAL_LOCK(huart);
 664:Drivers/STM32G0xx_HAL_Driver/Src/stm32g0xx_hal_uart_ex.c **** 
 665:Drivers/STM32G0xx_HAL_Driver/Src/stm32g0xx_hal_uart_ex.c ****   huart->gState = HAL_UART_STATE_BUSY;
 666:Drivers/STM32G0xx_HAL_Driver/Src/stm32g0xx_hal_uart_ex.c **** 
 667:Drivers/STM32G0xx_HAL_Driver/Src/stm32g0xx_hal_uart_ex.c ****   /* Save actual UART configuration */
 668:Drivers/STM32G0xx_HAL_Driver/Src/stm32g0xx_hal_uart_ex.c ****   tmpcr1 = READ_REG(huart->Instance->CR1);
 669:Drivers/STM32G0xx_HAL_Driver/Src/stm32g0xx_hal_uart_ex.c **** 
 670:Drivers/STM32G0xx_HAL_Driver/Src/stm32g0xx_hal_uart_ex.c ****   /* Disable UART */
 671:Drivers/STM32G0xx_HAL_Driver/Src/stm32g0xx_hal_uart_ex.c ****   __HAL_UART_DISABLE(huart);
 672:Drivers/STM32G0xx_HAL_Driver/Src/stm32g0xx_hal_uart_ex.c **** 
 673:Drivers/STM32G0xx_HAL_Driver/Src/stm32g0xx_hal_uart_ex.c ****   /* Update RX threshold configuration */
 674:Drivers/STM32G0xx_HAL_Driver/Src/stm32g0xx_hal_uart_ex.c ****   MODIFY_REG(huart->Instance->CR3, USART_CR3_RXFTCFG, Threshold);
 675:Drivers/STM32G0xx_HAL_Driver/Src/stm32g0xx_hal_uart_ex.c **** 
 676:Drivers/STM32G0xx_HAL_Driver/Src/stm32g0xx_hal_uart_ex.c ****   /* Determine the number of data to process during RX/TX ISR execution */
 677:Drivers/STM32G0xx_HAL_Driver/Src/stm32g0xx_hal_uart_ex.c ****   UARTEx_SetNbDataToProcess(huart);
 678:Drivers/STM32G0xx_HAL_Driver/Src/stm32g0xx_hal_uart_ex.c **** 
 679:Drivers/STM32G0xx_HAL_Driver/Src/stm32g0xx_hal_uart_ex.c ****   /* Restore UART configuration */
 680:Drivers/STM32G0xx_HAL_Driver/Src/stm32g0xx_hal_uart_ex.c ****   WRITE_REG(huart->Instance->CR1, tmpcr1);
 681:Drivers/STM32G0xx_HAL_Driver/Src/stm32g0xx_hal_uart_ex.c **** 
 682:Drivers/STM32G0xx_HAL_Driver/Src/stm32g0xx_hal_uart_ex.c ****   huart->gState = HAL_UART_STATE_READY;
 683:Drivers/STM32G0xx_HAL_Driver/Src/stm32g0xx_hal_uart_ex.c **** 
 684:Drivers/STM32G0xx_HAL_Driver/Src/stm32g0xx_hal_uart_ex.c ****   /* Process Unlocked */
 685:Drivers/STM32G0xx_HAL_Driver/Src/stm32g0xx_hal_uart_ex.c ****   __HAL_UNLOCK(huart);
 686:Drivers/STM32G0xx_HAL_Driver/Src/stm32g0xx_hal_uart_ex.c **** 
 687:Drivers/STM32G0xx_HAL_Driver/Src/stm32g0xx_hal_uart_ex.c ****   return HAL_OK;
 688:Drivers/STM32G0xx_HAL_Driver/Src/stm32g0xx_hal_uart_ex.c **** }
 689:Drivers/STM32G0xx_HAL_Driver/Src/stm32g0xx_hal_uart_ex.c **** 
 690:Drivers/STM32G0xx_HAL_Driver/Src/stm32g0xx_hal_uart_ex.c **** /**
 691:Drivers/STM32G0xx_HAL_Driver/Src/stm32g0xx_hal_uart_ex.c ****   * @brief Receive an amount of data in blocking mode till either the expected number of data
 692:Drivers/STM32G0xx_HAL_Driver/Src/stm32g0xx_hal_uart_ex.c ****   *        is received or an IDLE event occurs.
 693:Drivers/STM32G0xx_HAL_Driver/Src/stm32g0xx_hal_uart_ex.c ****   * @note  HAL_OK is returned if reception is completed (expected number of data has been received)
 694:Drivers/STM32G0xx_HAL_Driver/Src/stm32g0xx_hal_uart_ex.c ****   *        or if reception is stopped after IDLE event (less than the expected number of data has b
 695:Drivers/STM32G0xx_HAL_Driver/Src/stm32g0xx_hal_uart_ex.c ****   *        In this case, RxLen output parameter indicates number of data available in reception buf
 696:Drivers/STM32G0xx_HAL_Driver/Src/stm32g0xx_hal_uart_ex.c ****   * @note  When UART parity is not enabled (PCE = 0), and Word Length is configured to 9 bits (M1-M
 697:Drivers/STM32G0xx_HAL_Driver/Src/stm32g0xx_hal_uart_ex.c ****   *        the received data is handled as a set of uint16_t. In this case, Size must indicate the 
 698:Drivers/STM32G0xx_HAL_Driver/Src/stm32g0xx_hal_uart_ex.c ****   *        of uint16_t available through pData.
 699:Drivers/STM32G0xx_HAL_Driver/Src/stm32g0xx_hal_uart_ex.c ****   * @note When FIFO mode is enabled, the RXFNE flag is set as long as the RXFIFO
 700:Drivers/STM32G0xx_HAL_Driver/Src/stm32g0xx_hal_uart_ex.c ****   *       is not empty. Read operations from the RDR register are performed when
 701:Drivers/STM32G0xx_HAL_Driver/Src/stm32g0xx_hal_uart_ex.c ****   *       RXFNE flag is set. From hardware perspective, RXFNE flag and
 702:Drivers/STM32G0xx_HAL_Driver/Src/stm32g0xx_hal_uart_ex.c ****   *       RXNE are mapped on the same bit-field.
 703:Drivers/STM32G0xx_HAL_Driver/Src/stm32g0xx_hal_uart_ex.c ****   * @note   When UART parity is not enabled (PCE = 0), and Word Length is configured to 9 bits (M1-
 704:Drivers/STM32G0xx_HAL_Driver/Src/stm32g0xx_hal_uart_ex.c ****   *         address of user data buffer for storing data to be received, should be aligned on a hal
 705:Drivers/STM32G0xx_HAL_Driver/Src/stm32g0xx_hal_uart_ex.c ****   *         (16 bits) (as received data will be handled using uint16_t pointer cast). Depending on 
 706:Drivers/STM32G0xx_HAL_Driver/Src/stm32g0xx_hal_uart_ex.c ****   *         use of specific alignment compilation directives or pragmas might be required to ensure
 707:Drivers/STM32G0xx_HAL_Driver/Src/stm32g0xx_hal_uart_ex.c ****   *         alignment for pData.
 708:Drivers/STM32G0xx_HAL_Driver/Src/stm32g0xx_hal_uart_ex.c ****   * @param huart   UART handle.
 709:Drivers/STM32G0xx_HAL_Driver/Src/stm32g0xx_hal_uart_ex.c ****   * @param pData   Pointer to data buffer (uint8_t or uint16_t data elements).
 710:Drivers/STM32G0xx_HAL_Driver/Src/stm32g0xx_hal_uart_ex.c ****   * @param Size    Amount of data elements (uint8_t or uint16_t) to be received.
 711:Drivers/STM32G0xx_HAL_Driver/Src/stm32g0xx_hal_uart_ex.c ****   * @param RxLen   Number of data elements finally received
 712:Drivers/STM32G0xx_HAL_Driver/Src/stm32g0xx_hal_uart_ex.c ****   *                (could be lower than Size, in case reception ends on IDLE event)
 713:Drivers/STM32G0xx_HAL_Driver/Src/stm32g0xx_hal_uart_ex.c ****   * @param Timeout Timeout duration expressed in ms (covers the whole reception sequence).
 714:Drivers/STM32G0xx_HAL_Driver/Src/stm32g0xx_hal_uart_ex.c ****   * @retval HAL status
 715:Drivers/STM32G0xx_HAL_Driver/Src/stm32g0xx_hal_uart_ex.c ****   */
 716:Drivers/STM32G0xx_HAL_Driver/Src/stm32g0xx_hal_uart_ex.c **** HAL_StatusTypeDef HAL_UARTEx_ReceiveToIdle(UART_HandleTypeDef *huart, uint8_t *pData, uint16_t Size
ARM GAS  C:\Users\W_LINU~1\AppData\Local\Temp\ccQ78mwl.s 			page 14


 717:Drivers/STM32G0xx_HAL_Driver/Src/stm32g0xx_hal_uart_ex.c ****                                            uint32_t Timeout)
 718:Drivers/STM32G0xx_HAL_Driver/Src/stm32g0xx_hal_uart_ex.c **** {
 719:Drivers/STM32G0xx_HAL_Driver/Src/stm32g0xx_hal_uart_ex.c ****   uint8_t  *pdata8bits;
 720:Drivers/STM32G0xx_HAL_Driver/Src/stm32g0xx_hal_uart_ex.c ****   uint16_t *pdata16bits;
 721:Drivers/STM32G0xx_HAL_Driver/Src/stm32g0xx_hal_uart_ex.c ****   uint16_t uhMask;
 722:Drivers/STM32G0xx_HAL_Driver/Src/stm32g0xx_hal_uart_ex.c ****   uint32_t tickstart;
 723:Drivers/STM32G0xx_HAL_Driver/Src/stm32g0xx_hal_uart_ex.c **** 
 724:Drivers/STM32G0xx_HAL_Driver/Src/stm32g0xx_hal_uart_ex.c ****   /* Check that a Rx process is not already ongoing */
 725:Drivers/STM32G0xx_HAL_Driver/Src/stm32g0xx_hal_uart_ex.c ****   if (huart->RxState == HAL_UART_STATE_READY)
 726:Drivers/STM32G0xx_HAL_Driver/Src/stm32g0xx_hal_uart_ex.c ****   {
 727:Drivers/STM32G0xx_HAL_Driver/Src/stm32g0xx_hal_uart_ex.c ****     if ((pData == NULL) || (Size == 0U))
 728:Drivers/STM32G0xx_HAL_Driver/Src/stm32g0xx_hal_uart_ex.c ****     {
 729:Drivers/STM32G0xx_HAL_Driver/Src/stm32g0xx_hal_uart_ex.c ****       return  HAL_ERROR;
 730:Drivers/STM32G0xx_HAL_Driver/Src/stm32g0xx_hal_uart_ex.c ****     }
 731:Drivers/STM32G0xx_HAL_Driver/Src/stm32g0xx_hal_uart_ex.c **** 
 732:Drivers/STM32G0xx_HAL_Driver/Src/stm32g0xx_hal_uart_ex.c ****     /* In case of 9bits/No Parity transfer, pData buffer provided as input parameter
 733:Drivers/STM32G0xx_HAL_Driver/Src/stm32g0xx_hal_uart_ex.c ****        should be aligned on a uint16_t frontier, as data to be received from RDR will be
 734:Drivers/STM32G0xx_HAL_Driver/Src/stm32g0xx_hal_uart_ex.c ****        handled through a uint16_t cast. */
 735:Drivers/STM32G0xx_HAL_Driver/Src/stm32g0xx_hal_uart_ex.c ****     if ((huart->Init.WordLength == UART_WORDLENGTH_9B) && (huart->Init.Parity == UART_PARITY_NONE))
 736:Drivers/STM32G0xx_HAL_Driver/Src/stm32g0xx_hal_uart_ex.c ****     {
 737:Drivers/STM32G0xx_HAL_Driver/Src/stm32g0xx_hal_uart_ex.c ****       if ((((uint32_t)pData) & 1U) != 0U)
 738:Drivers/STM32G0xx_HAL_Driver/Src/stm32g0xx_hal_uart_ex.c ****       {
 739:Drivers/STM32G0xx_HAL_Driver/Src/stm32g0xx_hal_uart_ex.c ****         return  HAL_ERROR;
 740:Drivers/STM32G0xx_HAL_Driver/Src/stm32g0xx_hal_uart_ex.c ****       }
 741:Drivers/STM32G0xx_HAL_Driver/Src/stm32g0xx_hal_uart_ex.c ****     }
 742:Drivers/STM32G0xx_HAL_Driver/Src/stm32g0xx_hal_uart_ex.c **** 
 743:Drivers/STM32G0xx_HAL_Driver/Src/stm32g0xx_hal_uart_ex.c ****     huart->ErrorCode = HAL_UART_ERROR_NONE;
 744:Drivers/STM32G0xx_HAL_Driver/Src/stm32g0xx_hal_uart_ex.c ****     huart->RxState = HAL_UART_STATE_BUSY_RX;
 745:Drivers/STM32G0xx_HAL_Driver/Src/stm32g0xx_hal_uart_ex.c ****     huart->ReceptionType = HAL_UART_RECEPTION_TOIDLE;
 746:Drivers/STM32G0xx_HAL_Driver/Src/stm32g0xx_hal_uart_ex.c ****     huart->RxEventType = HAL_UART_RXEVENT_TC;
 747:Drivers/STM32G0xx_HAL_Driver/Src/stm32g0xx_hal_uart_ex.c **** 
 748:Drivers/STM32G0xx_HAL_Driver/Src/stm32g0xx_hal_uart_ex.c ****     /* Init tickstart for timeout management */
 749:Drivers/STM32G0xx_HAL_Driver/Src/stm32g0xx_hal_uart_ex.c ****     tickstart = HAL_GetTick();
 750:Drivers/STM32G0xx_HAL_Driver/Src/stm32g0xx_hal_uart_ex.c **** 
 751:Drivers/STM32G0xx_HAL_Driver/Src/stm32g0xx_hal_uart_ex.c ****     huart->RxXferSize  = Size;
 752:Drivers/STM32G0xx_HAL_Driver/Src/stm32g0xx_hal_uart_ex.c ****     huart->RxXferCount = Size;
 753:Drivers/STM32G0xx_HAL_Driver/Src/stm32g0xx_hal_uart_ex.c **** 
 754:Drivers/STM32G0xx_HAL_Driver/Src/stm32g0xx_hal_uart_ex.c ****     /* Computation of UART mask to apply to RDR register */
 755:Drivers/STM32G0xx_HAL_Driver/Src/stm32g0xx_hal_uart_ex.c ****     UART_MASK_COMPUTATION(huart);
 756:Drivers/STM32G0xx_HAL_Driver/Src/stm32g0xx_hal_uart_ex.c ****     uhMask = huart->Mask;
 757:Drivers/STM32G0xx_HAL_Driver/Src/stm32g0xx_hal_uart_ex.c **** 
 758:Drivers/STM32G0xx_HAL_Driver/Src/stm32g0xx_hal_uart_ex.c ****     /* In case of 9bits/No Parity transfer, pRxData needs to be handled as a uint16_t pointer */
 759:Drivers/STM32G0xx_HAL_Driver/Src/stm32g0xx_hal_uart_ex.c ****     if ((huart->Init.WordLength == UART_WORDLENGTH_9B) && (huart->Init.Parity == UART_PARITY_NONE))
 760:Drivers/STM32G0xx_HAL_Driver/Src/stm32g0xx_hal_uart_ex.c ****     {
 761:Drivers/STM32G0xx_HAL_Driver/Src/stm32g0xx_hal_uart_ex.c ****       pdata8bits  = NULL;
 762:Drivers/STM32G0xx_HAL_Driver/Src/stm32g0xx_hal_uart_ex.c ****       pdata16bits = (uint16_t *) pData;
 763:Drivers/STM32G0xx_HAL_Driver/Src/stm32g0xx_hal_uart_ex.c ****     }
 764:Drivers/STM32G0xx_HAL_Driver/Src/stm32g0xx_hal_uart_ex.c ****     else
 765:Drivers/STM32G0xx_HAL_Driver/Src/stm32g0xx_hal_uart_ex.c ****     {
 766:Drivers/STM32G0xx_HAL_Driver/Src/stm32g0xx_hal_uart_ex.c ****       pdata8bits  = pData;
 767:Drivers/STM32G0xx_HAL_Driver/Src/stm32g0xx_hal_uart_ex.c ****       pdata16bits = NULL;
 768:Drivers/STM32G0xx_HAL_Driver/Src/stm32g0xx_hal_uart_ex.c ****     }
 769:Drivers/STM32G0xx_HAL_Driver/Src/stm32g0xx_hal_uart_ex.c **** 
 770:Drivers/STM32G0xx_HAL_Driver/Src/stm32g0xx_hal_uart_ex.c ****     /* Initialize output number of received elements */
 771:Drivers/STM32G0xx_HAL_Driver/Src/stm32g0xx_hal_uart_ex.c ****     *RxLen = 0U;
 772:Drivers/STM32G0xx_HAL_Driver/Src/stm32g0xx_hal_uart_ex.c **** 
 773:Drivers/STM32G0xx_HAL_Driver/Src/stm32g0xx_hal_uart_ex.c ****     /* as long as data have to be received */
ARM GAS  C:\Users\W_LINU~1\AppData\Local\Temp\ccQ78mwl.s 			page 15


 774:Drivers/STM32G0xx_HAL_Driver/Src/stm32g0xx_hal_uart_ex.c ****     while (huart->RxXferCount > 0U)
 775:Drivers/STM32G0xx_HAL_Driver/Src/stm32g0xx_hal_uart_ex.c ****     {
 776:Drivers/STM32G0xx_HAL_Driver/Src/stm32g0xx_hal_uart_ex.c ****       /* Check if IDLE flag is set */
 777:Drivers/STM32G0xx_HAL_Driver/Src/stm32g0xx_hal_uart_ex.c ****       if (__HAL_UART_GET_FLAG(huart, UART_FLAG_IDLE))
 778:Drivers/STM32G0xx_HAL_Driver/Src/stm32g0xx_hal_uart_ex.c ****       {
 779:Drivers/STM32G0xx_HAL_Driver/Src/stm32g0xx_hal_uart_ex.c ****         /* Clear IDLE flag in ISR */
 780:Drivers/STM32G0xx_HAL_Driver/Src/stm32g0xx_hal_uart_ex.c ****         __HAL_UART_CLEAR_FLAG(huart, UART_CLEAR_IDLEF);
 781:Drivers/STM32G0xx_HAL_Driver/Src/stm32g0xx_hal_uart_ex.c **** 
 782:Drivers/STM32G0xx_HAL_Driver/Src/stm32g0xx_hal_uart_ex.c ****         /* If Set, but no data ever received, clear flag without exiting loop */
 783:Drivers/STM32G0xx_HAL_Driver/Src/stm32g0xx_hal_uart_ex.c ****         /* If Set, and data has already been received, this means Idle Event is valid : End recepti
 784:Drivers/STM32G0xx_HAL_Driver/Src/stm32g0xx_hal_uart_ex.c ****         if (*RxLen > 0U)
 785:Drivers/STM32G0xx_HAL_Driver/Src/stm32g0xx_hal_uart_ex.c ****         {
 786:Drivers/STM32G0xx_HAL_Driver/Src/stm32g0xx_hal_uart_ex.c ****           huart->RxEventType = HAL_UART_RXEVENT_IDLE;
 787:Drivers/STM32G0xx_HAL_Driver/Src/stm32g0xx_hal_uart_ex.c ****           huart->RxState = HAL_UART_STATE_READY;
 788:Drivers/STM32G0xx_HAL_Driver/Src/stm32g0xx_hal_uart_ex.c **** 
 789:Drivers/STM32G0xx_HAL_Driver/Src/stm32g0xx_hal_uart_ex.c ****           return HAL_OK;
 790:Drivers/STM32G0xx_HAL_Driver/Src/stm32g0xx_hal_uart_ex.c ****         }
 791:Drivers/STM32G0xx_HAL_Driver/Src/stm32g0xx_hal_uart_ex.c ****       }
 792:Drivers/STM32G0xx_HAL_Driver/Src/stm32g0xx_hal_uart_ex.c **** 
 793:Drivers/STM32G0xx_HAL_Driver/Src/stm32g0xx_hal_uart_ex.c ****       /* Check if RXNE flag is set */
 794:Drivers/STM32G0xx_HAL_Driver/Src/stm32g0xx_hal_uart_ex.c ****       if (__HAL_UART_GET_FLAG(huart, UART_FLAG_RXNE))
 795:Drivers/STM32G0xx_HAL_Driver/Src/stm32g0xx_hal_uart_ex.c ****       {
 796:Drivers/STM32G0xx_HAL_Driver/Src/stm32g0xx_hal_uart_ex.c ****         if (pdata8bits == NULL)
 797:Drivers/STM32G0xx_HAL_Driver/Src/stm32g0xx_hal_uart_ex.c ****         {
 798:Drivers/STM32G0xx_HAL_Driver/Src/stm32g0xx_hal_uart_ex.c ****           *pdata16bits = (uint16_t)(huart->Instance->RDR & uhMask);
 799:Drivers/STM32G0xx_HAL_Driver/Src/stm32g0xx_hal_uart_ex.c ****           pdata16bits++;
 800:Drivers/STM32G0xx_HAL_Driver/Src/stm32g0xx_hal_uart_ex.c ****         }
 801:Drivers/STM32G0xx_HAL_Driver/Src/stm32g0xx_hal_uart_ex.c ****         else
 802:Drivers/STM32G0xx_HAL_Driver/Src/stm32g0xx_hal_uart_ex.c ****         {
 803:Drivers/STM32G0xx_HAL_Driver/Src/stm32g0xx_hal_uart_ex.c ****           *pdata8bits = (uint8_t)(huart->Instance->RDR & (uint8_t)uhMask);
 804:Drivers/STM32G0xx_HAL_Driver/Src/stm32g0xx_hal_uart_ex.c ****           pdata8bits++;
 805:Drivers/STM32G0xx_HAL_Driver/Src/stm32g0xx_hal_uart_ex.c ****         }
 806:Drivers/STM32G0xx_HAL_Driver/Src/stm32g0xx_hal_uart_ex.c ****         /* Increment number of received elements */
 807:Drivers/STM32G0xx_HAL_Driver/Src/stm32g0xx_hal_uart_ex.c ****         *RxLen += 1U;
 808:Drivers/STM32G0xx_HAL_Driver/Src/stm32g0xx_hal_uart_ex.c ****         huart->RxXferCount--;
 809:Drivers/STM32G0xx_HAL_Driver/Src/stm32g0xx_hal_uart_ex.c ****       }
 810:Drivers/STM32G0xx_HAL_Driver/Src/stm32g0xx_hal_uart_ex.c **** 
 811:Drivers/STM32G0xx_HAL_Driver/Src/stm32g0xx_hal_uart_ex.c ****       /* Check for the Timeout */
 812:Drivers/STM32G0xx_HAL_Driver/Src/stm32g0xx_hal_uart_ex.c ****       if (Timeout != HAL_MAX_DELAY)
 813:Drivers/STM32G0xx_HAL_Driver/Src/stm32g0xx_hal_uart_ex.c ****       {
 814:Drivers/STM32G0xx_HAL_Driver/Src/stm32g0xx_hal_uart_ex.c ****         if (((HAL_GetTick() - tickstart) > Timeout) || (Timeout == 0U))
 815:Drivers/STM32G0xx_HAL_Driver/Src/stm32g0xx_hal_uart_ex.c ****         {
 816:Drivers/STM32G0xx_HAL_Driver/Src/stm32g0xx_hal_uart_ex.c ****           huart->RxState = HAL_UART_STATE_READY;
 817:Drivers/STM32G0xx_HAL_Driver/Src/stm32g0xx_hal_uart_ex.c **** 
 818:Drivers/STM32G0xx_HAL_Driver/Src/stm32g0xx_hal_uart_ex.c ****           return HAL_TIMEOUT;
 819:Drivers/STM32G0xx_HAL_Driver/Src/stm32g0xx_hal_uart_ex.c ****         }
 820:Drivers/STM32G0xx_HAL_Driver/Src/stm32g0xx_hal_uart_ex.c ****       }
 821:Drivers/STM32G0xx_HAL_Driver/Src/stm32g0xx_hal_uart_ex.c ****     }
 822:Drivers/STM32G0xx_HAL_Driver/Src/stm32g0xx_hal_uart_ex.c **** 
 823:Drivers/STM32G0xx_HAL_Driver/Src/stm32g0xx_hal_uart_ex.c ****     /* Set number of received elements in output parameter : RxLen */
 824:Drivers/STM32G0xx_HAL_Driver/Src/stm32g0xx_hal_uart_ex.c ****     *RxLen = huart->RxXferSize - huart->RxXferCount;
 825:Drivers/STM32G0xx_HAL_Driver/Src/stm32g0xx_hal_uart_ex.c ****     /* At end of Rx process, restore huart->RxState to Ready */
 826:Drivers/STM32G0xx_HAL_Driver/Src/stm32g0xx_hal_uart_ex.c ****     huart->RxState = HAL_UART_STATE_READY;
 827:Drivers/STM32G0xx_HAL_Driver/Src/stm32g0xx_hal_uart_ex.c **** 
 828:Drivers/STM32G0xx_HAL_Driver/Src/stm32g0xx_hal_uart_ex.c ****     return HAL_OK;
 829:Drivers/STM32G0xx_HAL_Driver/Src/stm32g0xx_hal_uart_ex.c ****   }
 830:Drivers/STM32G0xx_HAL_Driver/Src/stm32g0xx_hal_uart_ex.c ****   else
ARM GAS  C:\Users\W_LINU~1\AppData\Local\Temp\ccQ78mwl.s 			page 16


 831:Drivers/STM32G0xx_HAL_Driver/Src/stm32g0xx_hal_uart_ex.c ****   {
 832:Drivers/STM32G0xx_HAL_Driver/Src/stm32g0xx_hal_uart_ex.c ****     return HAL_BUSY;
 833:Drivers/STM32G0xx_HAL_Driver/Src/stm32g0xx_hal_uart_ex.c ****   }
 834:Drivers/STM32G0xx_HAL_Driver/Src/stm32g0xx_hal_uart_ex.c **** }
 835:Drivers/STM32G0xx_HAL_Driver/Src/stm32g0xx_hal_uart_ex.c **** 
 836:Drivers/STM32G0xx_HAL_Driver/Src/stm32g0xx_hal_uart_ex.c **** /**
 837:Drivers/STM32G0xx_HAL_Driver/Src/stm32g0xx_hal_uart_ex.c ****   * @brief Receive an amount of data in interrupt mode till either the expected number of data
 838:Drivers/STM32G0xx_HAL_Driver/Src/stm32g0xx_hal_uart_ex.c ****   *        is received or an IDLE event occurs.
 839:Drivers/STM32G0xx_HAL_Driver/Src/stm32g0xx_hal_uart_ex.c ****   * @note  Reception is initiated by this function call. Further progress of reception is achieved 
 840:Drivers/STM32G0xx_HAL_Driver/Src/stm32g0xx_hal_uart_ex.c ****   *        to UART interrupts raised by RXNE and IDLE events. Callback is called at end of receptio
 841:Drivers/STM32G0xx_HAL_Driver/Src/stm32g0xx_hal_uart_ex.c ****   *        number of received data elements.
 842:Drivers/STM32G0xx_HAL_Driver/Src/stm32g0xx_hal_uart_ex.c ****   * @note  When UART parity is not enabled (PCE = 0), and Word Length is configured to 9 bits (M1-M
 843:Drivers/STM32G0xx_HAL_Driver/Src/stm32g0xx_hal_uart_ex.c ****   *        the received data is handled as a set of uint16_t. In this case, Size must indicate the 
 844:Drivers/STM32G0xx_HAL_Driver/Src/stm32g0xx_hal_uart_ex.c ****   *        of uint16_t available through pData.
 845:Drivers/STM32G0xx_HAL_Driver/Src/stm32g0xx_hal_uart_ex.c ****   * @note  When UART parity is not enabled (PCE = 0), and Word Length is configured to 9 bits (M1-M
 846:Drivers/STM32G0xx_HAL_Driver/Src/stm32g0xx_hal_uart_ex.c ****   *        address of user data buffer for storing data to be received, should be aligned on a half
 847:Drivers/STM32G0xx_HAL_Driver/Src/stm32g0xx_hal_uart_ex.c ****   *        (16 bits) (as received data will be handled using uint16_t pointer cast). Depending on c
 848:Drivers/STM32G0xx_HAL_Driver/Src/stm32g0xx_hal_uart_ex.c ****   *        use of specific alignment compilation directives or pragmas might be required
 849:Drivers/STM32G0xx_HAL_Driver/Src/stm32g0xx_hal_uart_ex.c ****   *        to ensure proper alignment for pData.
 850:Drivers/STM32G0xx_HAL_Driver/Src/stm32g0xx_hal_uart_ex.c ****   * @param huart UART handle.
 851:Drivers/STM32G0xx_HAL_Driver/Src/stm32g0xx_hal_uart_ex.c ****   * @param pData Pointer to data buffer (uint8_t or uint16_t data elements).
 852:Drivers/STM32G0xx_HAL_Driver/Src/stm32g0xx_hal_uart_ex.c ****   * @param Size  Amount of data elements (uint8_t or uint16_t) to be received.
 853:Drivers/STM32G0xx_HAL_Driver/Src/stm32g0xx_hal_uart_ex.c ****   * @retval HAL status
 854:Drivers/STM32G0xx_HAL_Driver/Src/stm32g0xx_hal_uart_ex.c ****   */
 855:Drivers/STM32G0xx_HAL_Driver/Src/stm32g0xx_hal_uart_ex.c **** HAL_StatusTypeDef HAL_UARTEx_ReceiveToIdle_IT(UART_HandleTypeDef *huart, uint8_t *pData, uint16_t S
 856:Drivers/STM32G0xx_HAL_Driver/Src/stm32g0xx_hal_uart_ex.c **** {
 857:Drivers/STM32G0xx_HAL_Driver/Src/stm32g0xx_hal_uart_ex.c ****   HAL_StatusTypeDef status;
 858:Drivers/STM32G0xx_HAL_Driver/Src/stm32g0xx_hal_uart_ex.c **** 
 859:Drivers/STM32G0xx_HAL_Driver/Src/stm32g0xx_hal_uart_ex.c ****   /* Check that a Rx process is not already ongoing */
 860:Drivers/STM32G0xx_HAL_Driver/Src/stm32g0xx_hal_uart_ex.c ****   if (huart->RxState == HAL_UART_STATE_READY)
 861:Drivers/STM32G0xx_HAL_Driver/Src/stm32g0xx_hal_uart_ex.c ****   {
 862:Drivers/STM32G0xx_HAL_Driver/Src/stm32g0xx_hal_uart_ex.c ****     if ((pData == NULL) || (Size == 0U))
 863:Drivers/STM32G0xx_HAL_Driver/Src/stm32g0xx_hal_uart_ex.c ****     {
 864:Drivers/STM32G0xx_HAL_Driver/Src/stm32g0xx_hal_uart_ex.c ****       return HAL_ERROR;
 865:Drivers/STM32G0xx_HAL_Driver/Src/stm32g0xx_hal_uart_ex.c ****     }
 866:Drivers/STM32G0xx_HAL_Driver/Src/stm32g0xx_hal_uart_ex.c **** 
 867:Drivers/STM32G0xx_HAL_Driver/Src/stm32g0xx_hal_uart_ex.c ****     /* In case of 9bits/No Parity transfer, pData buffer provided as input parameter
 868:Drivers/STM32G0xx_HAL_Driver/Src/stm32g0xx_hal_uart_ex.c ****        should be aligned on a uint16_t frontier, as data to be received from RDR will be
 869:Drivers/STM32G0xx_HAL_Driver/Src/stm32g0xx_hal_uart_ex.c ****        handled through a uint16_t cast. */
 870:Drivers/STM32G0xx_HAL_Driver/Src/stm32g0xx_hal_uart_ex.c ****     if ((huart->Init.WordLength == UART_WORDLENGTH_9B) && (huart->Init.Parity == UART_PARITY_NONE))
 871:Drivers/STM32G0xx_HAL_Driver/Src/stm32g0xx_hal_uart_ex.c ****     {
 872:Drivers/STM32G0xx_HAL_Driver/Src/stm32g0xx_hal_uart_ex.c ****       if ((((uint32_t)pData) & 1U) != 0U)
 873:Drivers/STM32G0xx_HAL_Driver/Src/stm32g0xx_hal_uart_ex.c ****       {
 874:Drivers/STM32G0xx_HAL_Driver/Src/stm32g0xx_hal_uart_ex.c ****         return  HAL_ERROR;
 875:Drivers/STM32G0xx_HAL_Driver/Src/stm32g0xx_hal_uart_ex.c ****       }
 876:Drivers/STM32G0xx_HAL_Driver/Src/stm32g0xx_hal_uart_ex.c ****     }
 877:Drivers/STM32G0xx_HAL_Driver/Src/stm32g0xx_hal_uart_ex.c **** 
 878:Drivers/STM32G0xx_HAL_Driver/Src/stm32g0xx_hal_uart_ex.c ****     /* Set Reception type to reception till IDLE Event*/
 879:Drivers/STM32G0xx_HAL_Driver/Src/stm32g0xx_hal_uart_ex.c ****     huart->ReceptionType = HAL_UART_RECEPTION_TOIDLE;
 880:Drivers/STM32G0xx_HAL_Driver/Src/stm32g0xx_hal_uart_ex.c ****     huart->RxEventType = HAL_UART_RXEVENT_TC;
 881:Drivers/STM32G0xx_HAL_Driver/Src/stm32g0xx_hal_uart_ex.c **** 
 882:Drivers/STM32G0xx_HAL_Driver/Src/stm32g0xx_hal_uart_ex.c ****     status =  UART_Start_Receive_IT(huart, pData, Size);
 883:Drivers/STM32G0xx_HAL_Driver/Src/stm32g0xx_hal_uart_ex.c **** 
 884:Drivers/STM32G0xx_HAL_Driver/Src/stm32g0xx_hal_uart_ex.c ****     /* Check Rx process has been successfully started */
 885:Drivers/STM32G0xx_HAL_Driver/Src/stm32g0xx_hal_uart_ex.c ****     if (status == HAL_OK)
 886:Drivers/STM32G0xx_HAL_Driver/Src/stm32g0xx_hal_uart_ex.c ****     {
 887:Drivers/STM32G0xx_HAL_Driver/Src/stm32g0xx_hal_uart_ex.c ****       if (huart->ReceptionType == HAL_UART_RECEPTION_TOIDLE)
ARM GAS  C:\Users\W_LINU~1\AppData\Local\Temp\ccQ78mwl.s 			page 17


 888:Drivers/STM32G0xx_HAL_Driver/Src/stm32g0xx_hal_uart_ex.c ****       {
 889:Drivers/STM32G0xx_HAL_Driver/Src/stm32g0xx_hal_uart_ex.c ****         __HAL_UART_CLEAR_FLAG(huart, UART_CLEAR_IDLEF);
 890:Drivers/STM32G0xx_HAL_Driver/Src/stm32g0xx_hal_uart_ex.c ****         ATOMIC_SET_BIT(huart->Instance->CR1, USART_CR1_IDLEIE);
 891:Drivers/STM32G0xx_HAL_Driver/Src/stm32g0xx_hal_uart_ex.c ****       }
 892:Drivers/STM32G0xx_HAL_Driver/Src/stm32g0xx_hal_uart_ex.c ****       else
 893:Drivers/STM32G0xx_HAL_Driver/Src/stm32g0xx_hal_uart_ex.c ****       {
 894:Drivers/STM32G0xx_HAL_Driver/Src/stm32g0xx_hal_uart_ex.c ****         /* In case of errors already pending when reception is started,
 895:Drivers/STM32G0xx_HAL_Driver/Src/stm32g0xx_hal_uart_ex.c ****            Interrupts may have already been raised and lead to reception abortion.
 896:Drivers/STM32G0xx_HAL_Driver/Src/stm32g0xx_hal_uart_ex.c ****            (Overrun error for instance).
 897:Drivers/STM32G0xx_HAL_Driver/Src/stm32g0xx_hal_uart_ex.c ****            In such case Reception Type has been reset to HAL_UART_RECEPTION_STANDARD. */
 898:Drivers/STM32G0xx_HAL_Driver/Src/stm32g0xx_hal_uart_ex.c ****         status = HAL_ERROR;
 899:Drivers/STM32G0xx_HAL_Driver/Src/stm32g0xx_hal_uart_ex.c ****       }
 900:Drivers/STM32G0xx_HAL_Driver/Src/stm32g0xx_hal_uart_ex.c ****     }
 901:Drivers/STM32G0xx_HAL_Driver/Src/stm32g0xx_hal_uart_ex.c **** 
 902:Drivers/STM32G0xx_HAL_Driver/Src/stm32g0xx_hal_uart_ex.c ****     return status;
 903:Drivers/STM32G0xx_HAL_Driver/Src/stm32g0xx_hal_uart_ex.c ****   }
 904:Drivers/STM32G0xx_HAL_Driver/Src/stm32g0xx_hal_uart_ex.c ****   else
 905:Drivers/STM32G0xx_HAL_Driver/Src/stm32g0xx_hal_uart_ex.c ****   {
 906:Drivers/STM32G0xx_HAL_Driver/Src/stm32g0xx_hal_uart_ex.c ****     return HAL_BUSY;
 907:Drivers/STM32G0xx_HAL_Driver/Src/stm32g0xx_hal_uart_ex.c ****   }
 908:Drivers/STM32G0xx_HAL_Driver/Src/stm32g0xx_hal_uart_ex.c **** }
 909:Drivers/STM32G0xx_HAL_Driver/Src/stm32g0xx_hal_uart_ex.c **** 
 910:Drivers/STM32G0xx_HAL_Driver/Src/stm32g0xx_hal_uart_ex.c **** /**
 911:Drivers/STM32G0xx_HAL_Driver/Src/stm32g0xx_hal_uart_ex.c ****   * @brief Receive an amount of data in DMA mode till either the expected number
 912:Drivers/STM32G0xx_HAL_Driver/Src/stm32g0xx_hal_uart_ex.c ****   *        of data is received or an IDLE event occurs.
 913:Drivers/STM32G0xx_HAL_Driver/Src/stm32g0xx_hal_uart_ex.c ****   * @note  Reception is initiated by this function call. Further progress of reception is achieved 
 914:Drivers/STM32G0xx_HAL_Driver/Src/stm32g0xx_hal_uart_ex.c ****   *        to DMA services, transferring automatically received data elements in user reception buf
 915:Drivers/STM32G0xx_HAL_Driver/Src/stm32g0xx_hal_uart_ex.c ****   *        calling registered callbacks at half/end of reception. UART IDLE events are also used to
 916:Drivers/STM32G0xx_HAL_Driver/Src/stm32g0xx_hal_uart_ex.c ****   *        reception phase as ended. In all cases, callback execution will indicate number of recei
 917:Drivers/STM32G0xx_HAL_Driver/Src/stm32g0xx_hal_uart_ex.c ****   * @note  When the UART parity is enabled (PCE = 1), the received data contain
 918:Drivers/STM32G0xx_HAL_Driver/Src/stm32g0xx_hal_uart_ex.c ****   *        the parity bit (MSB position).
 919:Drivers/STM32G0xx_HAL_Driver/Src/stm32g0xx_hal_uart_ex.c ****   * @note  When UART parity is not enabled (PCE = 0), and Word Length is configured to 9 bits (M1-M
 920:Drivers/STM32G0xx_HAL_Driver/Src/stm32g0xx_hal_uart_ex.c ****   *        the received data is handled as a set of uint16_t. In this case, Size must indicate the 
 921:Drivers/STM32G0xx_HAL_Driver/Src/stm32g0xx_hal_uart_ex.c ****   *        of uint16_t available through pData.
 922:Drivers/STM32G0xx_HAL_Driver/Src/stm32g0xx_hal_uart_ex.c ****   * @note  When UART parity is not enabled (PCE = 0), and Word Length is configured to 9 bits (M1-M
 923:Drivers/STM32G0xx_HAL_Driver/Src/stm32g0xx_hal_uart_ex.c ****   *        address of user data buffer for storing data to be received, should be aligned on a half
 924:Drivers/STM32G0xx_HAL_Driver/Src/stm32g0xx_hal_uart_ex.c ****   *        (16 bits) (as received data will be handled by DMA from halfword frontier). Depending on
 925:Drivers/STM32G0xx_HAL_Driver/Src/stm32g0xx_hal_uart_ex.c ****   *        use of specific alignment compilation directives or pragmas might be required
 926:Drivers/STM32G0xx_HAL_Driver/Src/stm32g0xx_hal_uart_ex.c ****   *        to ensure proper alignment for pData.
 927:Drivers/STM32G0xx_HAL_Driver/Src/stm32g0xx_hal_uart_ex.c ****   * @param huart UART handle.
 928:Drivers/STM32G0xx_HAL_Driver/Src/stm32g0xx_hal_uart_ex.c ****   * @param pData Pointer to data buffer (uint8_t or uint16_t data elements).
 929:Drivers/STM32G0xx_HAL_Driver/Src/stm32g0xx_hal_uart_ex.c ****   * @param Size  Amount of data elements (uint8_t or uint16_t) to be received.
 930:Drivers/STM32G0xx_HAL_Driver/Src/stm32g0xx_hal_uart_ex.c ****   * @retval HAL status
 931:Drivers/STM32G0xx_HAL_Driver/Src/stm32g0xx_hal_uart_ex.c ****   */
 932:Drivers/STM32G0xx_HAL_Driver/Src/stm32g0xx_hal_uart_ex.c **** HAL_StatusTypeDef HAL_UARTEx_ReceiveToIdle_DMA(UART_HandleTypeDef *huart, uint8_t *pData, uint16_t 
 933:Drivers/STM32G0xx_HAL_Driver/Src/stm32g0xx_hal_uart_ex.c **** {
 934:Drivers/STM32G0xx_HAL_Driver/Src/stm32g0xx_hal_uart_ex.c ****   HAL_StatusTypeDef status;
 935:Drivers/STM32G0xx_HAL_Driver/Src/stm32g0xx_hal_uart_ex.c **** 
 936:Drivers/STM32G0xx_HAL_Driver/Src/stm32g0xx_hal_uart_ex.c ****   /* Check that a Rx process is not already ongoing */
 937:Drivers/STM32G0xx_HAL_Driver/Src/stm32g0xx_hal_uart_ex.c ****   if (huart->RxState == HAL_UART_STATE_READY)
 938:Drivers/STM32G0xx_HAL_Driver/Src/stm32g0xx_hal_uart_ex.c ****   {
 939:Drivers/STM32G0xx_HAL_Driver/Src/stm32g0xx_hal_uart_ex.c ****     if ((pData == NULL) || (Size == 0U))
 940:Drivers/STM32G0xx_HAL_Driver/Src/stm32g0xx_hal_uart_ex.c ****     {
 941:Drivers/STM32G0xx_HAL_Driver/Src/stm32g0xx_hal_uart_ex.c ****       return HAL_ERROR;
 942:Drivers/STM32G0xx_HAL_Driver/Src/stm32g0xx_hal_uart_ex.c ****     }
 943:Drivers/STM32G0xx_HAL_Driver/Src/stm32g0xx_hal_uart_ex.c **** 
 944:Drivers/STM32G0xx_HAL_Driver/Src/stm32g0xx_hal_uart_ex.c ****     /* In case of 9bits/No Parity transfer, pData buffer provided as input parameter
ARM GAS  C:\Users\W_LINU~1\AppData\Local\Temp\ccQ78mwl.s 			page 18


 945:Drivers/STM32G0xx_HAL_Driver/Src/stm32g0xx_hal_uart_ex.c ****        should be aligned on a uint16_t frontier, as data copy from RDR will be
 946:Drivers/STM32G0xx_HAL_Driver/Src/stm32g0xx_hal_uart_ex.c ****        handled by DMA from a uint16_t frontier. */
 947:Drivers/STM32G0xx_HAL_Driver/Src/stm32g0xx_hal_uart_ex.c ****     if ((huart->Init.WordLength == UART_WORDLENGTH_9B) && (huart->Init.Parity == UART_PARITY_NONE))
 948:Drivers/STM32G0xx_HAL_Driver/Src/stm32g0xx_hal_uart_ex.c ****     {
 949:Drivers/STM32G0xx_HAL_Driver/Src/stm32g0xx_hal_uart_ex.c ****       if ((((uint32_t)pData) & 1U) != 0U)
 950:Drivers/STM32G0xx_HAL_Driver/Src/stm32g0xx_hal_uart_ex.c ****       {
 951:Drivers/STM32G0xx_HAL_Driver/Src/stm32g0xx_hal_uart_ex.c ****         return  HAL_ERROR;
 952:Drivers/STM32G0xx_HAL_Driver/Src/stm32g0xx_hal_uart_ex.c ****       }
 953:Drivers/STM32G0xx_HAL_Driver/Src/stm32g0xx_hal_uart_ex.c ****     }
 954:Drivers/STM32G0xx_HAL_Driver/Src/stm32g0xx_hal_uart_ex.c **** 
 955:Drivers/STM32G0xx_HAL_Driver/Src/stm32g0xx_hal_uart_ex.c ****     /* Set Reception type to reception till IDLE Event*/
 956:Drivers/STM32G0xx_HAL_Driver/Src/stm32g0xx_hal_uart_ex.c ****     huart->ReceptionType = HAL_UART_RECEPTION_TOIDLE;
 957:Drivers/STM32G0xx_HAL_Driver/Src/stm32g0xx_hal_uart_ex.c ****     huart->RxEventType = HAL_UART_RXEVENT_TC;
 958:Drivers/STM32G0xx_HAL_Driver/Src/stm32g0xx_hal_uart_ex.c **** 
 959:Drivers/STM32G0xx_HAL_Driver/Src/stm32g0xx_hal_uart_ex.c ****     status =  UART_Start_Receive_DMA(huart, pData, Size);
 960:Drivers/STM32G0xx_HAL_Driver/Src/stm32g0xx_hal_uart_ex.c **** 
 961:Drivers/STM32G0xx_HAL_Driver/Src/stm32g0xx_hal_uart_ex.c ****     /* Check Rx process has been successfully started */
 962:Drivers/STM32G0xx_HAL_Driver/Src/stm32g0xx_hal_uart_ex.c ****     if (status == HAL_OK)
 963:Drivers/STM32G0xx_HAL_Driver/Src/stm32g0xx_hal_uart_ex.c ****     {
 964:Drivers/STM32G0xx_HAL_Driver/Src/stm32g0xx_hal_uart_ex.c ****       if (huart->ReceptionType == HAL_UART_RECEPTION_TOIDLE)
 965:Drivers/STM32G0xx_HAL_Driver/Src/stm32g0xx_hal_uart_ex.c ****       {
 966:Drivers/STM32G0xx_HAL_Driver/Src/stm32g0xx_hal_uart_ex.c ****         __HAL_UART_CLEAR_FLAG(huart, UART_CLEAR_IDLEF);
 967:Drivers/STM32G0xx_HAL_Driver/Src/stm32g0xx_hal_uart_ex.c ****         ATOMIC_SET_BIT(huart->Instance->CR1, USART_CR1_IDLEIE);
 968:Drivers/STM32G0xx_HAL_Driver/Src/stm32g0xx_hal_uart_ex.c ****       }
 969:Drivers/STM32G0xx_HAL_Driver/Src/stm32g0xx_hal_uart_ex.c ****       else
 970:Drivers/STM32G0xx_HAL_Driver/Src/stm32g0xx_hal_uart_ex.c ****       {
 971:Drivers/STM32G0xx_HAL_Driver/Src/stm32g0xx_hal_uart_ex.c ****         /* In case of errors already pending when reception is started,
 972:Drivers/STM32G0xx_HAL_Driver/Src/stm32g0xx_hal_uart_ex.c ****            Interrupts may have already been raised and lead to reception abortion.
 973:Drivers/STM32G0xx_HAL_Driver/Src/stm32g0xx_hal_uart_ex.c ****            (Overrun error for instance).
 974:Drivers/STM32G0xx_HAL_Driver/Src/stm32g0xx_hal_uart_ex.c ****            In such case Reception Type has been reset to HAL_UART_RECEPTION_STANDARD. */
 975:Drivers/STM32G0xx_HAL_Driver/Src/stm32g0xx_hal_uart_ex.c ****         status = HAL_ERROR;
 976:Drivers/STM32G0xx_HAL_Driver/Src/stm32g0xx_hal_uart_ex.c ****       }
 977:Drivers/STM32G0xx_HAL_Driver/Src/stm32g0xx_hal_uart_ex.c ****     }
 978:Drivers/STM32G0xx_HAL_Driver/Src/stm32g0xx_hal_uart_ex.c **** 
 979:Drivers/STM32G0xx_HAL_Driver/Src/stm32g0xx_hal_uart_ex.c ****     return status;
 980:Drivers/STM32G0xx_HAL_Driver/Src/stm32g0xx_hal_uart_ex.c ****   }
 981:Drivers/STM32G0xx_HAL_Driver/Src/stm32g0xx_hal_uart_ex.c ****   else
 982:Drivers/STM32G0xx_HAL_Driver/Src/stm32g0xx_hal_uart_ex.c ****   {
 983:Drivers/STM32G0xx_HAL_Driver/Src/stm32g0xx_hal_uart_ex.c ****     return HAL_BUSY;
 984:Drivers/STM32G0xx_HAL_Driver/Src/stm32g0xx_hal_uart_ex.c ****   }
 985:Drivers/STM32G0xx_HAL_Driver/Src/stm32g0xx_hal_uart_ex.c **** }
 986:Drivers/STM32G0xx_HAL_Driver/Src/stm32g0xx_hal_uart_ex.c **** 
 987:Drivers/STM32G0xx_HAL_Driver/Src/stm32g0xx_hal_uart_ex.c **** /**
 988:Drivers/STM32G0xx_HAL_Driver/Src/stm32g0xx_hal_uart_ex.c ****   * @brief Provide Rx Event type that has lead to RxEvent callback execution.
 989:Drivers/STM32G0xx_HAL_Driver/Src/stm32g0xx_hal_uart_ex.c ****   * @note  When HAL_UARTEx_ReceiveToIdle_IT() or HAL_UARTEx_ReceiveToIdle_DMA() API are called, pro
 990:Drivers/STM32G0xx_HAL_Driver/Src/stm32g0xx_hal_uart_ex.c ****   *        of reception process is provided to application through calls of Rx Event callback (eith
 991:Drivers/STM32G0xx_HAL_Driver/Src/stm32g0xx_hal_uart_ex.c ****   *        HAL_UARTEx_RxEventCallback() or user registered one). As several types of events could o
 992:Drivers/STM32G0xx_HAL_Driver/Src/stm32g0xx_hal_uart_ex.c ****   *        Half Transfer, or Transfer Complete), this function allows to retrieve the Rx Event type
 993:Drivers/STM32G0xx_HAL_Driver/Src/stm32g0xx_hal_uart_ex.c ****   *        to Rx Event callback execution.
 994:Drivers/STM32G0xx_HAL_Driver/Src/stm32g0xx_hal_uart_ex.c ****   * @note  This function is expected to be called within the user implementation of Rx Event Callba
 995:Drivers/STM32G0xx_HAL_Driver/Src/stm32g0xx_hal_uart_ex.c ****   *        in order to provide the accurate value :
 996:Drivers/STM32G0xx_HAL_Driver/Src/stm32g0xx_hal_uart_ex.c ****   *        In Interrupt Mode :
 997:Drivers/STM32G0xx_HAL_Driver/Src/stm32g0xx_hal_uart_ex.c ****   *           - HAL_UART_RXEVENT_TC : when Reception has been completed (expected nb of data has be
 998:Drivers/STM32G0xx_HAL_Driver/Src/stm32g0xx_hal_uart_ex.c ****   *           - HAL_UART_RXEVENT_IDLE : when Idle event occurred prior reception has been completed
 999:Drivers/STM32G0xx_HAL_Driver/Src/stm32g0xx_hal_uart_ex.c ****   *             received data is lower than expected one)
1000:Drivers/STM32G0xx_HAL_Driver/Src/stm32g0xx_hal_uart_ex.c ****   *        In DMA Mode :
1001:Drivers/STM32G0xx_HAL_Driver/Src/stm32g0xx_hal_uart_ex.c ****   *           - HAL_UART_RXEVENT_TC : when Reception has been completed (expected nb of data has be
ARM GAS  C:\Users\W_LINU~1\AppData\Local\Temp\ccQ78mwl.s 			page 19


1002:Drivers/STM32G0xx_HAL_Driver/Src/stm32g0xx_hal_uart_ex.c ****   *           - HAL_UART_RXEVENT_HT : when half of expected nb of data has been received
1003:Drivers/STM32G0xx_HAL_Driver/Src/stm32g0xx_hal_uart_ex.c ****   *           - HAL_UART_RXEVENT_IDLE : when Idle event occurred prior reception has been completed
1004:Drivers/STM32G0xx_HAL_Driver/Src/stm32g0xx_hal_uart_ex.c ****   *             received data is lower than expected one).
1005:Drivers/STM32G0xx_HAL_Driver/Src/stm32g0xx_hal_uart_ex.c ****   *        In DMA mode, RxEvent callback could be called several times;
1006:Drivers/STM32G0xx_HAL_Driver/Src/stm32g0xx_hal_uart_ex.c ****   *        When DMA is configured in Normal Mode, HT event does not stop Reception process;
1007:Drivers/STM32G0xx_HAL_Driver/Src/stm32g0xx_hal_uart_ex.c ****   *        When DMA is configured in Circular Mode, HT, TC or IDLE events don't stop Reception proc
1008:Drivers/STM32G0xx_HAL_Driver/Src/stm32g0xx_hal_uart_ex.c ****   * @param  huart UART handle.
1009:Drivers/STM32G0xx_HAL_Driver/Src/stm32g0xx_hal_uart_ex.c ****   * @retval Rx Event Type (return vale will be a value of @ref UART_RxEvent_Type_Values)
1010:Drivers/STM32G0xx_HAL_Driver/Src/stm32g0xx_hal_uart_ex.c ****   */
1011:Drivers/STM32G0xx_HAL_Driver/Src/stm32g0xx_hal_uart_ex.c **** HAL_UART_RxEventTypeTypeDef HAL_UARTEx_GetRxEventType(UART_HandleTypeDef *huart)
1012:Drivers/STM32G0xx_HAL_Driver/Src/stm32g0xx_hal_uart_ex.c **** {
1013:Drivers/STM32G0xx_HAL_Driver/Src/stm32g0xx_hal_uart_ex.c ****   /* Return Rx Event type value, as stored in UART handle */
1014:Drivers/STM32G0xx_HAL_Driver/Src/stm32g0xx_hal_uart_ex.c ****   return(huart->RxEventType);
1015:Drivers/STM32G0xx_HAL_Driver/Src/stm32g0xx_hal_uart_ex.c **** }
1016:Drivers/STM32G0xx_HAL_Driver/Src/stm32g0xx_hal_uart_ex.c **** 
1017:Drivers/STM32G0xx_HAL_Driver/Src/stm32g0xx_hal_uart_ex.c **** /**
1018:Drivers/STM32G0xx_HAL_Driver/Src/stm32g0xx_hal_uart_ex.c ****   * @}
1019:Drivers/STM32G0xx_HAL_Driver/Src/stm32g0xx_hal_uart_ex.c ****   */
1020:Drivers/STM32G0xx_HAL_Driver/Src/stm32g0xx_hal_uart_ex.c **** 
1021:Drivers/STM32G0xx_HAL_Driver/Src/stm32g0xx_hal_uart_ex.c **** /**
1022:Drivers/STM32G0xx_HAL_Driver/Src/stm32g0xx_hal_uart_ex.c ****   * @}
1023:Drivers/STM32G0xx_HAL_Driver/Src/stm32g0xx_hal_uart_ex.c ****   */
1024:Drivers/STM32G0xx_HAL_Driver/Src/stm32g0xx_hal_uart_ex.c **** 
1025:Drivers/STM32G0xx_HAL_Driver/Src/stm32g0xx_hal_uart_ex.c **** /** @addtogroup UARTEx_Private_Functions
1026:Drivers/STM32G0xx_HAL_Driver/Src/stm32g0xx_hal_uart_ex.c ****   * @{
1027:Drivers/STM32G0xx_HAL_Driver/Src/stm32g0xx_hal_uart_ex.c ****   */
1028:Drivers/STM32G0xx_HAL_Driver/Src/stm32g0xx_hal_uart_ex.c **** 
1029:Drivers/STM32G0xx_HAL_Driver/Src/stm32g0xx_hal_uart_ex.c **** /**
1030:Drivers/STM32G0xx_HAL_Driver/Src/stm32g0xx_hal_uart_ex.c ****   * @brief Initialize the UART wake-up from stop mode parameters when triggered by address detectio
1031:Drivers/STM32G0xx_HAL_Driver/Src/stm32g0xx_hal_uart_ex.c ****   * @param huart           UART handle.
1032:Drivers/STM32G0xx_HAL_Driver/Src/stm32g0xx_hal_uart_ex.c ****   * @param WakeUpSelection UART wake up from stop mode parameters.
1033:Drivers/STM32G0xx_HAL_Driver/Src/stm32g0xx_hal_uart_ex.c ****   * @retval None
1034:Drivers/STM32G0xx_HAL_Driver/Src/stm32g0xx_hal_uart_ex.c ****   */
1035:Drivers/STM32G0xx_HAL_Driver/Src/stm32g0xx_hal_uart_ex.c **** static void UARTEx_Wakeup_AddressConfig(UART_HandleTypeDef *huart, UART_WakeUpTypeDef WakeUpSelecti
1036:Drivers/STM32G0xx_HAL_Driver/Src/stm32g0xx_hal_uart_ex.c **** {
  27              		.loc 1 1036 1 view -0
  28              		.cfi_startproc
  29              		@ args = 0, pretend = 0, frame = 8
  30              		@ frame_needed = 0, uses_anonymous_args = 0
  31              		@ link register save eliminated.
  32              		.loc 1 1036 1 is_stmt 0 view .LVU1
  33 0000 82B0     		sub	sp, sp, #8
  34              	.LCFI0:
  35              		.cfi_def_cfa_offset 8
  36 0002 0091     		str	r1, [sp]
  37 0004 0192     		str	r2, [sp, #4]
1037:Drivers/STM32G0xx_HAL_Driver/Src/stm32g0xx_hal_uart_ex.c ****   assert_param(IS_UART_ADDRESSLENGTH_DETECT(WakeUpSelection.AddressLength));
  38              		.loc 1 1037 3 is_stmt 1 view .LVU2
1038:Drivers/STM32G0xx_HAL_Driver/Src/stm32g0xx_hal_uart_ex.c **** 
1039:Drivers/STM32G0xx_HAL_Driver/Src/stm32g0xx_hal_uart_ex.c ****   /* Set the USART address length */
1040:Drivers/STM32G0xx_HAL_Driver/Src/stm32g0xx_hal_uart_ex.c ****   MODIFY_REG(huart->Instance->CR2, USART_CR2_ADDM7, WakeUpSelection.AddressLength);
  39              		.loc 1 1040 3 view .LVU3
  40 0006 0268     		ldr	r2, [r0]
  41 0008 5368     		ldr	r3, [r2, #4]
  42 000a 1021     		movs	r1, #16
  43 000c 8B43     		bics	r3, r1
  44 000e 6946     		mov	r1, sp
ARM GAS  C:\Users\W_LINU~1\AppData\Local\Temp\ccQ78mwl.s 			page 20


  45 0010 8988     		ldrh	r1, [r1, #4]
  46 0012 0B43     		orrs	r3, r1
  47 0014 5360     		str	r3, [r2, #4]
1041:Drivers/STM32G0xx_HAL_Driver/Src/stm32g0xx_hal_uart_ex.c **** 
1042:Drivers/STM32G0xx_HAL_Driver/Src/stm32g0xx_hal_uart_ex.c ****   /* Set the USART address node */
1043:Drivers/STM32G0xx_HAL_Driver/Src/stm32g0xx_hal_uart_ex.c ****   MODIFY_REG(huart->Instance->CR2, USART_CR2_ADD, ((uint32_t)WakeUpSelection.Address << UART_CR2_AD
  48              		.loc 1 1043 3 view .LVU4
  49 0016 0168     		ldr	r1, [r0]
  50 0018 4B68     		ldr	r3, [r1, #4]
  51 001a 1B02     		lsls	r3, r3, #8
  52 001c 1B0A     		lsrs	r3, r3, #8
  53 001e 6A46     		mov	r2, sp
  54 0020 9279     		ldrb	r2, [r2, #6]
  55 0022 1206     		lsls	r2, r2, #24
  56 0024 1343     		orrs	r3, r2
  57 0026 4B60     		str	r3, [r1, #4]
1044:Drivers/STM32G0xx_HAL_Driver/Src/stm32g0xx_hal_uart_ex.c **** }
  58              		.loc 1 1044 1 is_stmt 0 view .LVU5
  59 0028 02B0     		add	sp, sp, #8
  60              		@ sp needed
  61 002a 7047     		bx	lr
  62              		.cfi_endproc
  63              	.LFE306:
  65              		.global	__aeabi_idiv
  66              		.section	.text.UARTEx_SetNbDataToProcess,"ax",%progbits
  67              		.align	1
  68              		.syntax unified
  69              		.code	16
  70              		.thumb_func
  72              	UARTEx_SetNbDataToProcess:
  73              	.LVL1:
  74              	.LFB307:
1045:Drivers/STM32G0xx_HAL_Driver/Src/stm32g0xx_hal_uart_ex.c **** 
1046:Drivers/STM32G0xx_HAL_Driver/Src/stm32g0xx_hal_uart_ex.c **** /**
1047:Drivers/STM32G0xx_HAL_Driver/Src/stm32g0xx_hal_uart_ex.c ****   * @brief Calculate the number of data to process in RX/TX ISR.
1048:Drivers/STM32G0xx_HAL_Driver/Src/stm32g0xx_hal_uart_ex.c ****   * @note The RX FIFO depth and the TX FIFO depth is extracted from
1049:Drivers/STM32G0xx_HAL_Driver/Src/stm32g0xx_hal_uart_ex.c ****   *       the UART configuration registers.
1050:Drivers/STM32G0xx_HAL_Driver/Src/stm32g0xx_hal_uart_ex.c ****   * @param huart UART handle.
1051:Drivers/STM32G0xx_HAL_Driver/Src/stm32g0xx_hal_uart_ex.c ****   * @retval None
1052:Drivers/STM32G0xx_HAL_Driver/Src/stm32g0xx_hal_uart_ex.c ****   */
1053:Drivers/STM32G0xx_HAL_Driver/Src/stm32g0xx_hal_uart_ex.c **** static void UARTEx_SetNbDataToProcess(UART_HandleTypeDef *huart)
1054:Drivers/STM32G0xx_HAL_Driver/Src/stm32g0xx_hal_uart_ex.c **** {
  75              		.loc 1 1054 1 is_stmt 1 view -0
  76              		.cfi_startproc
  77              		@ args = 0, pretend = 0, frame = 0
  78              		@ frame_needed = 0, uses_anonymous_args = 0
  79              		.loc 1 1054 1 is_stmt 0 view .LVU7
  80 0000 F8B5     		push	{r3, r4, r5, r6, r7, lr}
  81              	.LCFI1:
  82              		.cfi_def_cfa_offset 24
  83              		.cfi_offset 3, -24
  84              		.cfi_offset 4, -20
  85              		.cfi_offset 5, -16
  86              		.cfi_offset 6, -12
  87              		.cfi_offset 7, -8
  88              		.cfi_offset 14, -4
  89 0002 0400     		movs	r4, r0
ARM GAS  C:\Users\W_LINU~1\AppData\Local\Temp\ccQ78mwl.s 			page 21


1055:Drivers/STM32G0xx_HAL_Driver/Src/stm32g0xx_hal_uart_ex.c ****   uint8_t rx_fifo_depth;
  90              		.loc 1 1055 3 is_stmt 1 view .LVU8
1056:Drivers/STM32G0xx_HAL_Driver/Src/stm32g0xx_hal_uart_ex.c ****   uint8_t tx_fifo_depth;
  91              		.loc 1 1056 3 view .LVU9
1057:Drivers/STM32G0xx_HAL_Driver/Src/stm32g0xx_hal_uart_ex.c ****   uint8_t rx_fifo_threshold;
  92              		.loc 1 1057 3 view .LVU10
1058:Drivers/STM32G0xx_HAL_Driver/Src/stm32g0xx_hal_uart_ex.c ****   uint8_t tx_fifo_threshold;
  93              		.loc 1 1058 3 view .LVU11
1059:Drivers/STM32G0xx_HAL_Driver/Src/stm32g0xx_hal_uart_ex.c ****   static const uint8_t numerator[] = {1U, 1U, 1U, 3U, 7U, 1U, 0U, 0U};
  94              		.loc 1 1059 3 view .LVU12
1060:Drivers/STM32G0xx_HAL_Driver/Src/stm32g0xx_hal_uart_ex.c ****   static const uint8_t denominator[] = {8U, 4U, 2U, 4U, 8U, 1U, 1U, 1U};
  95              		.loc 1 1060 3 view .LVU13
1061:Drivers/STM32G0xx_HAL_Driver/Src/stm32g0xx_hal_uart_ex.c **** 
1062:Drivers/STM32G0xx_HAL_Driver/Src/stm32g0xx_hal_uart_ex.c ****   if (huart->FifoMode == UART_FIFOMODE_DISABLE)
  96              		.loc 1 1062 3 view .LVU14
  97              		.loc 1 1062 12 is_stmt 0 view .LVU15
  98 0004 436E     		ldr	r3, [r0, #100]
  99              		.loc 1 1062 6 view .LVU16
 100 0006 002B     		cmp	r3, #0
 101 0008 05D1     		bne	.L3
1063:Drivers/STM32G0xx_HAL_Driver/Src/stm32g0xx_hal_uart_ex.c ****   {
1064:Drivers/STM32G0xx_HAL_Driver/Src/stm32g0xx_hal_uart_ex.c ****     huart->NbTxDataToProcess = 1U;
 102              		.loc 1 1064 5 is_stmt 1 view .LVU17
 103              		.loc 1 1064 30 is_stmt 0 view .LVU18
 104 000a 0133     		adds	r3, r3, #1
 105 000c 6A22     		movs	r2, #106
 106 000e 8352     		strh	r3, [r0, r2]
1065:Drivers/STM32G0xx_HAL_Driver/Src/stm32g0xx_hal_uart_ex.c ****     huart->NbRxDataToProcess = 1U;
 107              		.loc 1 1065 5 is_stmt 1 view .LVU19
 108              		.loc 1 1065 30 is_stmt 0 view .LVU20
 109 0010 023A     		subs	r2, r2, #2
 110 0012 8352     		strh	r3, [r0, r2]
 111              	.LVL2:
 112              	.L2:
1066:Drivers/STM32G0xx_HAL_Driver/Src/stm32g0xx_hal_uart_ex.c ****   }
1067:Drivers/STM32G0xx_HAL_Driver/Src/stm32g0xx_hal_uart_ex.c ****   else
1068:Drivers/STM32G0xx_HAL_Driver/Src/stm32g0xx_hal_uart_ex.c ****   {
1069:Drivers/STM32G0xx_HAL_Driver/Src/stm32g0xx_hal_uart_ex.c ****     rx_fifo_depth = RX_FIFO_DEPTH;
1070:Drivers/STM32G0xx_HAL_Driver/Src/stm32g0xx_hal_uart_ex.c ****     tx_fifo_depth = TX_FIFO_DEPTH;
1071:Drivers/STM32G0xx_HAL_Driver/Src/stm32g0xx_hal_uart_ex.c ****     rx_fifo_threshold = (uint8_t)(READ_BIT(huart->Instance->CR3, USART_CR3_RXFTCFG) >> USART_CR3_RX
1072:Drivers/STM32G0xx_HAL_Driver/Src/stm32g0xx_hal_uart_ex.c ****     tx_fifo_threshold = (uint8_t)(READ_BIT(huart->Instance->CR3, USART_CR3_TXFTCFG) >> USART_CR3_TX
1073:Drivers/STM32G0xx_HAL_Driver/Src/stm32g0xx_hal_uart_ex.c ****     huart->NbTxDataToProcess = ((uint16_t)tx_fifo_depth * numerator[tx_fifo_threshold]) /
1074:Drivers/STM32G0xx_HAL_Driver/Src/stm32g0xx_hal_uart_ex.c ****                                (uint16_t)denominator[tx_fifo_threshold];
1075:Drivers/STM32G0xx_HAL_Driver/Src/stm32g0xx_hal_uart_ex.c ****     huart->NbRxDataToProcess = ((uint16_t)rx_fifo_depth * numerator[rx_fifo_threshold]) /
1076:Drivers/STM32G0xx_HAL_Driver/Src/stm32g0xx_hal_uart_ex.c ****                                (uint16_t)denominator[rx_fifo_threshold];
1077:Drivers/STM32G0xx_HAL_Driver/Src/stm32g0xx_hal_uart_ex.c ****   }
1078:Drivers/STM32G0xx_HAL_Driver/Src/stm32g0xx_hal_uart_ex.c **** }
 113              		.loc 1 1078 1 view .LVU21
 114              		@ sp needed
 115              	.LVL3:
 116              		.loc 1 1078 1 view .LVU22
 117 0014 F8BD     		pop	{r3, r4, r5, r6, r7, pc}
 118              	.LVL4:
 119              	.L3:
1069:Drivers/STM32G0xx_HAL_Driver/Src/stm32g0xx_hal_uart_ex.c ****     tx_fifo_depth = TX_FIFO_DEPTH;
 120              		.loc 1 1069 5 is_stmt 1 view .LVU23
1070:Drivers/STM32G0xx_HAL_Driver/Src/stm32g0xx_hal_uart_ex.c ****     rx_fifo_threshold = (uint8_t)(READ_BIT(huart->Instance->CR3, USART_CR3_RXFTCFG) >> USART_CR3_RX
ARM GAS  C:\Users\W_LINU~1\AppData\Local\Temp\ccQ78mwl.s 			page 22


 121              		.loc 1 1070 5 view .LVU24
1071:Drivers/STM32G0xx_HAL_Driver/Src/stm32g0xx_hal_uart_ex.c ****     tx_fifo_threshold = (uint8_t)(READ_BIT(huart->Instance->CR3, USART_CR3_TXFTCFG) >> USART_CR3_TX
 122              		.loc 1 1071 5 view .LVU25
1071:Drivers/STM32G0xx_HAL_Driver/Src/stm32g0xx_hal_uart_ex.c ****     tx_fifo_threshold = (uint8_t)(READ_BIT(huart->Instance->CR3, USART_CR3_TXFTCFG) >> USART_CR3_TX
 123              		.loc 1 1071 35 is_stmt 0 view .LVU26
 124 0016 0268     		ldr	r2, [r0]
 125 0018 9568     		ldr	r5, [r2, #8]
1071:Drivers/STM32G0xx_HAL_Driver/Src/stm32g0xx_hal_uart_ex.c ****     tx_fifo_threshold = (uint8_t)(READ_BIT(huart->Instance->CR3, USART_CR3_TXFTCFG) >> USART_CR3_TX
 126              		.loc 1 1071 25 view .LVU27
 127 001a 6D0E     		lsrs	r5, r5, #25
1071:Drivers/STM32G0xx_HAL_Driver/Src/stm32g0xx_hal_uart_ex.c ****     tx_fifo_threshold = (uint8_t)(READ_BIT(huart->Instance->CR3, USART_CR3_TXFTCFG) >> USART_CR3_TX
 128              		.loc 1 1071 23 view .LVU28
 129 001c 0723     		movs	r3, #7
 130 001e 1D40     		ands	r5, r3
 131              	.LVL5:
1072:Drivers/STM32G0xx_HAL_Driver/Src/stm32g0xx_hal_uart_ex.c ****     huart->NbTxDataToProcess = ((uint16_t)tx_fifo_depth * numerator[tx_fifo_threshold]) /
 132              		.loc 1 1072 5 is_stmt 1 view .LVU29
1072:Drivers/STM32G0xx_HAL_Driver/Src/stm32g0xx_hal_uart_ex.c ****     huart->NbTxDataToProcess = ((uint16_t)tx_fifo_depth * numerator[tx_fifo_threshold]) /
 133              		.loc 1 1072 35 is_stmt 0 view .LVU30
 134 0020 9268     		ldr	r2, [r2, #8]
1072:Drivers/STM32G0xx_HAL_Driver/Src/stm32g0xx_hal_uart_ex.c ****     huart->NbTxDataToProcess = ((uint16_t)tx_fifo_depth * numerator[tx_fifo_threshold]) /
 135              		.loc 1 1072 25 view .LVU31
 136 0022 520F     		lsrs	r2, r2, #29
1072:Drivers/STM32G0xx_HAL_Driver/Src/stm32g0xx_hal_uart_ex.c ****     huart->NbTxDataToProcess = ((uint16_t)tx_fifo_depth * numerator[tx_fifo_threshold]) /
 137              		.loc 1 1072 23 view .LVU32
 138 0024 1340     		ands	r3, r2
 139              	.LVL6:
1073:Drivers/STM32G0xx_HAL_Driver/Src/stm32g0xx_hal_uart_ex.c ****                                (uint16_t)denominator[tx_fifo_threshold];
 140              		.loc 1 1073 5 is_stmt 1 view .LVU33
1073:Drivers/STM32G0xx_HAL_Driver/Src/stm32g0xx_hal_uart_ex.c ****                                (uint16_t)denominator[tx_fifo_threshold];
 141              		.loc 1 1073 68 is_stmt 0 view .LVU34
 142 0026 084F     		ldr	r7, .L5
 143 0028 F85C     		ldrb	r0, [r7, r3]
 144              	.LVL7:
1073:Drivers/STM32G0xx_HAL_Driver/Src/stm32g0xx_hal_uart_ex.c ****                                (uint16_t)denominator[tx_fifo_threshold];
 145              		.loc 1 1073 57 view .LVU35
 146 002a C000     		lsls	r0, r0, #3
1074:Drivers/STM32G0xx_HAL_Driver/Src/stm32g0xx_hal_uart_ex.c ****     huart->NbRxDataToProcess = ((uint16_t)rx_fifo_depth * numerator[rx_fifo_threshold]) /
 147              		.loc 1 1074 53 view .LVU36
 148 002c 074E     		ldr	r6, .L5+4
 149 002e F15C     		ldrb	r1, [r6, r3]
1073:Drivers/STM32G0xx_HAL_Driver/Src/stm32g0xx_hal_uart_ex.c ****                                (uint16_t)denominator[tx_fifo_threshold];
 150              		.loc 1 1073 89 view .LVU37
 151 0030 FFF7FEFF 		bl	__aeabi_idiv
 152              	.LVL8:
1073:Drivers/STM32G0xx_HAL_Driver/Src/stm32g0xx_hal_uart_ex.c ****                                (uint16_t)denominator[tx_fifo_threshold];
 153              		.loc 1 1073 30 view .LVU38
 154 0034 6A23     		movs	r3, #106
 155 0036 E052     		strh	r0, [r4, r3]
1075:Drivers/STM32G0xx_HAL_Driver/Src/stm32g0xx_hal_uart_ex.c ****                                (uint16_t)denominator[rx_fifo_threshold];
 156              		.loc 1 1075 5 is_stmt 1 view .LVU39
1075:Drivers/STM32G0xx_HAL_Driver/Src/stm32g0xx_hal_uart_ex.c ****                                (uint16_t)denominator[rx_fifo_threshold];
 157              		.loc 1 1075 68 is_stmt 0 view .LVU40
 158 0038 785D     		ldrb	r0, [r7, r5]
1075:Drivers/STM32G0xx_HAL_Driver/Src/stm32g0xx_hal_uart_ex.c ****                                (uint16_t)denominator[rx_fifo_threshold];
 159              		.loc 1 1075 57 view .LVU41
 160 003a C000     		lsls	r0, r0, #3
ARM GAS  C:\Users\W_LINU~1\AppData\Local\Temp\ccQ78mwl.s 			page 23


1076:Drivers/STM32G0xx_HAL_Driver/Src/stm32g0xx_hal_uart_ex.c ****   }
 161              		.loc 1 1076 53 view .LVU42
 162 003c 715D     		ldrb	r1, [r6, r5]
1075:Drivers/STM32G0xx_HAL_Driver/Src/stm32g0xx_hal_uart_ex.c ****                                (uint16_t)denominator[rx_fifo_threshold];
 163              		.loc 1 1075 89 view .LVU43
 164 003e FFF7FEFF 		bl	__aeabi_idiv
 165              	.LVL9:
1075:Drivers/STM32G0xx_HAL_Driver/Src/stm32g0xx_hal_uart_ex.c ****                                (uint16_t)denominator[rx_fifo_threshold];
 166              		.loc 1 1075 30 view .LVU44
 167 0042 6823     		movs	r3, #104
 168 0044 E052     		strh	r0, [r4, r3]
 169              		.loc 1 1078 1 view .LVU45
 170 0046 E5E7     		b	.L2
 171              	.L6:
 172              		.align	2
 173              	.L5:
 174 0048 00000000 		.word	numerator.1
 175 004c 00000000 		.word	denominator.0
 176              		.cfi_endproc
 177              	.LFE307:
 179              		.section	.text.HAL_RS485Ex_Init,"ax",%progbits
 180              		.align	1
 181              		.global	HAL_RS485Ex_Init
 182              		.syntax unified
 183              		.code	16
 184              		.thumb_func
 186              	HAL_RS485Ex_Init:
 187              	.LVL10:
 188              	.LFB290:
 168:Drivers/STM32G0xx_HAL_Driver/Src/stm32g0xx_hal_uart_ex.c ****   uint32_t temp;
 189              		.loc 1 168 1 is_stmt 1 view -0
 190              		.cfi_startproc
 191              		@ args = 0, pretend = 0, frame = 0
 192              		@ frame_needed = 0, uses_anonymous_args = 0
 168:Drivers/STM32G0xx_HAL_Driver/Src/stm32g0xx_hal_uart_ex.c ****   uint32_t temp;
 193              		.loc 1 168 1 is_stmt 0 view .LVU47
 194 0000 F8B5     		push	{r3, r4, r5, r6, r7, lr}
 195              	.LCFI2:
 196              		.cfi_def_cfa_offset 24
 197              		.cfi_offset 3, -24
 198              		.cfi_offset 4, -20
 199              		.cfi_offset 5, -16
 200              		.cfi_offset 6, -12
 201              		.cfi_offset 7, -8
 202              		.cfi_offset 14, -4
 203 0002 0400     		movs	r4, r0
 204 0004 0F00     		movs	r7, r1
 205 0006 1600     		movs	r6, r2
 206 0008 1D00     		movs	r5, r3
 169:Drivers/STM32G0xx_HAL_Driver/Src/stm32g0xx_hal_uart_ex.c **** 
 207              		.loc 1 169 3 is_stmt 1 view .LVU48
 172:Drivers/STM32G0xx_HAL_Driver/Src/stm32g0xx_hal_uart_ex.c ****   {
 208              		.loc 1 172 3 view .LVU49
 172:Drivers/STM32G0xx_HAL_Driver/Src/stm32g0xx_hal_uart_ex.c ****   {
 209              		.loc 1 172 6 is_stmt 0 view .LVU50
 210 000a 0028     		cmp	r0, #0
 211 000c 3BD0     		beq	.L11
ARM GAS  C:\Users\W_LINU~1\AppData\Local\Temp\ccQ78mwl.s 			page 24


 177:Drivers/STM32G0xx_HAL_Driver/Src/stm32g0xx_hal_uart_ex.c **** 
 212              		.loc 1 177 3 is_stmt 1 view .LVU51
 180:Drivers/STM32G0xx_HAL_Driver/Src/stm32g0xx_hal_uart_ex.c **** 
 213              		.loc 1 180 3 view .LVU52
 183:Drivers/STM32G0xx_HAL_Driver/Src/stm32g0xx_hal_uart_ex.c **** 
 214              		.loc 1 183 3 view .LVU53
 186:Drivers/STM32G0xx_HAL_Driver/Src/stm32g0xx_hal_uart_ex.c **** 
 215              		.loc 1 186 3 view .LVU54
 188:Drivers/STM32G0xx_HAL_Driver/Src/stm32g0xx_hal_uart_ex.c ****   {
 216              		.loc 1 188 3 view .LVU55
 188:Drivers/STM32G0xx_HAL_Driver/Src/stm32g0xx_hal_uart_ex.c ****   {
 217              		.loc 1 188 12 is_stmt 0 view .LVU56
 218 000e 8823     		movs	r3, #136
 219              	.LVL11:
 188:Drivers/STM32G0xx_HAL_Driver/Src/stm32g0xx_hal_uart_ex.c ****   {
 220              		.loc 1 188 12 view .LVU57
 221 0010 C358     		ldr	r3, [r0, r3]
 188:Drivers/STM32G0xx_HAL_Driver/Src/stm32g0xx_hal_uart_ex.c ****   {
 222              		.loc 1 188 6 view .LVU58
 223 0012 002B     		cmp	r3, #0
 224 0014 2DD0     		beq	.L12
 225              	.LVL12:
 226              	.L9:
 209:Drivers/STM32G0xx_HAL_Driver/Src/stm32g0xx_hal_uart_ex.c **** 
 227              		.loc 1 209 3 is_stmt 1 view .LVU59
 209:Drivers/STM32G0xx_HAL_Driver/Src/stm32g0xx_hal_uart_ex.c **** 
 228              		.loc 1 209 17 is_stmt 0 view .LVU60
 229 0016 8823     		movs	r3, #136
 230 0018 2422     		movs	r2, #36
 231 001a E250     		str	r2, [r4, r3]
 212:Drivers/STM32G0xx_HAL_Driver/Src/stm32g0xx_hal_uart_ex.c **** 
 232              		.loc 1 212 3 is_stmt 1 view .LVU61
 233 001c 2268     		ldr	r2, [r4]
 234 001e 1368     		ldr	r3, [r2]
 235 0020 0121     		movs	r1, #1
 236 0022 8B43     		bics	r3, r1
 237 0024 1360     		str	r3, [r2]
 215:Drivers/STM32G0xx_HAL_Driver/Src/stm32g0xx_hal_uart_ex.c ****   {
 238              		.loc 1 215 3 view .LVU62
 215:Drivers/STM32G0xx_HAL_Driver/Src/stm32g0xx_hal_uart_ex.c ****   {
 239              		.loc 1 215 7 is_stmt 0 view .LVU63
 240 0026 2000     		movs	r0, r4
 241 0028 FFF7FEFF 		bl	UART_SetConfig
 242              	.LVL13:
 215:Drivers/STM32G0xx_HAL_Driver/Src/stm32g0xx_hal_uart_ex.c ****   {
 243              		.loc 1 215 6 view .LVU64
 244 002c 0128     		cmp	r0, #1
 245 002e 1FD0     		beq	.L8
 220:Drivers/STM32G0xx_HAL_Driver/Src/stm32g0xx_hal_uart_ex.c ****   {
 246              		.loc 1 220 3 is_stmt 1 view .LVU65
 220:Drivers/STM32G0xx_HAL_Driver/Src/stm32g0xx_hal_uart_ex.c ****   {
 247              		.loc 1 220 26 is_stmt 0 view .LVU66
 248 0030 A36A     		ldr	r3, [r4, #40]
 220:Drivers/STM32G0xx_HAL_Driver/Src/stm32g0xx_hal_uart_ex.c ****   {
 249              		.loc 1 220 6 view .LVU67
 250 0032 002B     		cmp	r3, #0
 251 0034 23D1     		bne	.L13
ARM GAS  C:\Users\W_LINU~1\AppData\Local\Temp\ccQ78mwl.s 			page 25


 252              	.L10:
 226:Drivers/STM32G0xx_HAL_Driver/Src/stm32g0xx_hal_uart_ex.c **** 
 253              		.loc 1 226 3 is_stmt 1 view .LVU68
 254 0036 2268     		ldr	r2, [r4]
 255 0038 9168     		ldr	r1, [r2, #8]
 256 003a 8023     		movs	r3, #128
 257 003c DB01     		lsls	r3, r3, #7
 258 003e 0B43     		orrs	r3, r1
 259 0040 9360     		str	r3, [r2, #8]
 229:Drivers/STM32G0xx_HAL_Driver/Src/stm32g0xx_hal_uart_ex.c **** 
 260              		.loc 1 229 3 view .LVU69
 261 0042 2268     		ldr	r2, [r4]
 262 0044 9368     		ldr	r3, [r2, #8]
 263 0046 1149     		ldr	r1, .L14
 264 0048 0B40     		ands	r3, r1
 265 004a 3B43     		orrs	r3, r7
 266 004c 9360     		str	r3, [r2, #8]
 232:Drivers/STM32G0xx_HAL_Driver/Src/stm32g0xx_hal_uart_ex.c ****   temp |= (DeassertionTime << UART_CR1_DEDT_ADDRESS_LSB_POS);
 267              		.loc 1 232 3 view .LVU70
 232:Drivers/STM32G0xx_HAL_Driver/Src/stm32g0xx_hal_uart_ex.c ****   temp |= (DeassertionTime << UART_CR1_DEDT_ADDRESS_LSB_POS);
 268              		.loc 1 232 8 is_stmt 0 view .LVU71
 269 004e 7605     		lsls	r6, r6, #21
 270              	.LVL14:
 233:Drivers/STM32G0xx_HAL_Driver/Src/stm32g0xx_hal_uart_ex.c ****   MODIFY_REG(huart->Instance->CR1, (USART_CR1_DEDT | USART_CR1_DEAT), temp);
 271              		.loc 1 233 3 is_stmt 1 view .LVU72
 233:Drivers/STM32G0xx_HAL_Driver/Src/stm32g0xx_hal_uart_ex.c ****   MODIFY_REG(huart->Instance->CR1, (USART_CR1_DEDT | USART_CR1_DEAT), temp);
 272              		.loc 1 233 28 is_stmt 0 view .LVU73
 273 0050 2D04     		lsls	r5, r5, #16
 274              	.LVL15:
 233:Drivers/STM32G0xx_HAL_Driver/Src/stm32g0xx_hal_uart_ex.c ****   MODIFY_REG(huart->Instance->CR1, (USART_CR1_DEDT | USART_CR1_DEAT), temp);
 275              		.loc 1 233 8 view .LVU74
 276 0052 3543     		orrs	r5, r6
 277              	.LVL16:
 234:Drivers/STM32G0xx_HAL_Driver/Src/stm32g0xx_hal_uart_ex.c **** 
 278              		.loc 1 234 3 is_stmt 1 view .LVU75
 279 0054 2268     		ldr	r2, [r4]
 280 0056 1368     		ldr	r3, [r2]
 281 0058 0D49     		ldr	r1, .L14+4
 282 005a 0B40     		ands	r3, r1
 283 005c 2B43     		orrs	r3, r5
 284 005e 1360     		str	r3, [r2]
 237:Drivers/STM32G0xx_HAL_Driver/Src/stm32g0xx_hal_uart_ex.c **** 
 285              		.loc 1 237 3 view .LVU76
 286 0060 2268     		ldr	r2, [r4]
 287 0062 1368     		ldr	r3, [r2]
 288 0064 0121     		movs	r1, #1
 289 0066 0B43     		orrs	r3, r1
 290 0068 1360     		str	r3, [r2]
 240:Drivers/STM32G0xx_HAL_Driver/Src/stm32g0xx_hal_uart_ex.c **** }
 291              		.loc 1 240 3 view .LVU77
 240:Drivers/STM32G0xx_HAL_Driver/Src/stm32g0xx_hal_uart_ex.c **** }
 292              		.loc 1 240 11 is_stmt 0 view .LVU78
 293 006a 2000     		movs	r0, r4
 294 006c FFF7FEFF 		bl	UART_CheckIdleState
 295              	.LVL17:
 296              	.L8:
 241:Drivers/STM32G0xx_HAL_Driver/Src/stm32g0xx_hal_uart_ex.c **** 
ARM GAS  C:\Users\W_LINU~1\AppData\Local\Temp\ccQ78mwl.s 			page 26


 297              		.loc 1 241 1 view .LVU79
 298              		@ sp needed
 299              	.LVL18:
 300              	.LVL19:
 241:Drivers/STM32G0xx_HAL_Driver/Src/stm32g0xx_hal_uart_ex.c **** 
 301              		.loc 1 241 1 view .LVU80
 302 0070 F8BD     		pop	{r3, r4, r5, r6, r7, pc}
 303              	.LVL20:
 304              	.L12:
 191:Drivers/STM32G0xx_HAL_Driver/Src/stm32g0xx_hal_uart_ex.c **** 
 305              		.loc 1 191 5 is_stmt 1 view .LVU81
 191:Drivers/STM32G0xx_HAL_Driver/Src/stm32g0xx_hal_uart_ex.c **** 
 306              		.loc 1 191 17 is_stmt 0 view .LVU82
 307 0072 8433     		adds	r3, r3, #132
 308 0074 0022     		movs	r2, #0
 309              	.LVL21:
 191:Drivers/STM32G0xx_HAL_Driver/Src/stm32g0xx_hal_uart_ex.c **** 
 310              		.loc 1 191 17 view .LVU83
 311 0076 C254     		strb	r2, [r0, r3]
 205:Drivers/STM32G0xx_HAL_Driver/Src/stm32g0xx_hal_uart_ex.c **** #endif /* (USE_HAL_UART_REGISTER_CALLBACKS) */
 312              		.loc 1 205 5 is_stmt 1 view .LVU84
 313 0078 FFF7FEFF 		bl	HAL_UART_MspInit
 314              	.LVL22:
 205:Drivers/STM32G0xx_HAL_Driver/Src/stm32g0xx_hal_uart_ex.c **** #endif /* (USE_HAL_UART_REGISTER_CALLBACKS) */
 315              		.loc 1 205 5 is_stmt 0 view .LVU85
 316 007c CBE7     		b	.L9
 317              	.L13:
 222:Drivers/STM32G0xx_HAL_Driver/Src/stm32g0xx_hal_uart_ex.c ****   }
 318              		.loc 1 222 5 is_stmt 1 view .LVU86
 319 007e 2000     		movs	r0, r4
 320 0080 FFF7FEFF 		bl	UART_AdvFeatureConfig
 321              	.LVL23:
 322 0084 D7E7     		b	.L10
 323              	.LVL24:
 324              	.L11:
 174:Drivers/STM32G0xx_HAL_Driver/Src/stm32g0xx_hal_uart_ex.c ****   }
 325              		.loc 1 174 12 is_stmt 0 view .LVU87
 326 0086 0120     		movs	r0, #1
 327              	.LVL25:
 174:Drivers/STM32G0xx_HAL_Driver/Src/stm32g0xx_hal_uart_ex.c ****   }
 328              		.loc 1 174 12 view .LVU88
 329 0088 F2E7     		b	.L8
 330              	.L15:
 331 008a C046     		.align	2
 332              	.L14:
 333 008c FF7FFFFF 		.word	-32769
 334 0090 FFFF00FC 		.word	-67043329
 335              		.cfi_endproc
 336              	.LFE290:
 338              		.section	.text.HAL_UARTEx_WakeupCallback,"ax",%progbits
 339              		.align	1
 340              		.weak	HAL_UARTEx_WakeupCallback
 341              		.syntax unified
 342              		.code	16
 343              		.thumb_func
 345              	HAL_UARTEx_WakeupCallback:
 346              	.LVL26:
ARM GAS  C:\Users\W_LINU~1\AppData\Local\Temp\ccQ78mwl.s 			page 27


 347              	.LFB291:
 273:Drivers/STM32G0xx_HAL_Driver/Src/stm32g0xx_hal_uart_ex.c ****   /* Prevent unused argument(s) compilation warning */
 348              		.loc 1 273 1 is_stmt 1 view -0
 349              		.cfi_startproc
 350              		@ args = 0, pretend = 0, frame = 0
 351              		@ frame_needed = 0, uses_anonymous_args = 0
 352              		@ link register save eliminated.
 275:Drivers/STM32G0xx_HAL_Driver/Src/stm32g0xx_hal_uart_ex.c **** 
 353              		.loc 1 275 3 view .LVU90
 280:Drivers/STM32G0xx_HAL_Driver/Src/stm32g0xx_hal_uart_ex.c **** 
 354              		.loc 1 280 1 is_stmt 0 view .LVU91
 355              		@ sp needed
 356 0000 7047     		bx	lr
 357              		.cfi_endproc
 358              	.LFE291:
 360              		.section	.text.HAL_UARTEx_RxFifoFullCallback,"ax",%progbits
 361              		.align	1
 362              		.weak	HAL_UARTEx_RxFifoFullCallback
 363              		.syntax unified
 364              		.code	16
 365              		.thumb_func
 367              	HAL_UARTEx_RxFifoFullCallback:
 368              	.LVL27:
 369              	.LFB292:
 288:Drivers/STM32G0xx_HAL_Driver/Src/stm32g0xx_hal_uart_ex.c ****   /* Prevent unused argument(s) compilation warning */
 370              		.loc 1 288 1 is_stmt 1 view -0
 371              		.cfi_startproc
 372              		@ args = 0, pretend = 0, frame = 0
 373              		@ frame_needed = 0, uses_anonymous_args = 0
 374              		@ link register save eliminated.
 290:Drivers/STM32G0xx_HAL_Driver/Src/stm32g0xx_hal_uart_ex.c **** 
 375              		.loc 1 290 3 view .LVU93
 295:Drivers/STM32G0xx_HAL_Driver/Src/stm32g0xx_hal_uart_ex.c **** 
 376              		.loc 1 295 1 is_stmt 0 view .LVU94
 377              		@ sp needed
 378 0000 7047     		bx	lr
 379              		.cfi_endproc
 380              	.LFE292:
 382              		.section	.text.HAL_UARTEx_TxFifoEmptyCallback,"ax",%progbits
 383              		.align	1
 384              		.weak	HAL_UARTEx_TxFifoEmptyCallback
 385              		.syntax unified
 386              		.code	16
 387              		.thumb_func
 389              	HAL_UARTEx_TxFifoEmptyCallback:
 390              	.LVL28:
 391              	.LFB293:
 303:Drivers/STM32G0xx_HAL_Driver/Src/stm32g0xx_hal_uart_ex.c ****   /* Prevent unused argument(s) compilation warning */
 392              		.loc 1 303 1 is_stmt 1 view -0
 393              		.cfi_startproc
 394              		@ args = 0, pretend = 0, frame = 0
 395              		@ frame_needed = 0, uses_anonymous_args = 0
 396              		@ link register save eliminated.
 305:Drivers/STM32G0xx_HAL_Driver/Src/stm32g0xx_hal_uart_ex.c **** 
 397              		.loc 1 305 3 view .LVU96
 310:Drivers/STM32G0xx_HAL_Driver/Src/stm32g0xx_hal_uart_ex.c **** 
 398              		.loc 1 310 1 is_stmt 0 view .LVU97
ARM GAS  C:\Users\W_LINU~1\AppData\Local\Temp\ccQ78mwl.s 			page 28


 399              		@ sp needed
 400 0000 7047     		bx	lr
 401              		.cfi_endproc
 402              	.LFE293:
 404              		.section	.text.HAL_MultiProcessorEx_AddressLength_Set,"ax",%progbits
 405              		.align	1
 406              		.global	HAL_MultiProcessorEx_AddressLength_Set
 407              		.syntax unified
 408              		.code	16
 409              		.thumb_func
 411              	HAL_MultiProcessorEx_AddressLength_Set:
 412              	.LVL29:
 413              	.LFB294:
 388:Drivers/STM32G0xx_HAL_Driver/Src/stm32g0xx_hal_uart_ex.c ****   /* Check the UART handle allocation */
 414              		.loc 1 388 1 is_stmt 1 view -0
 415              		.cfi_startproc
 416              		@ args = 0, pretend = 0, frame = 0
 417              		@ frame_needed = 0, uses_anonymous_args = 0
 388:Drivers/STM32G0xx_HAL_Driver/Src/stm32g0xx_hal_uart_ex.c ****   /* Check the UART handle allocation */
 418              		.loc 1 388 1 is_stmt 0 view .LVU99
 419 0000 70B5     		push	{r4, r5, r6, lr}
 420              	.LCFI3:
 421              		.cfi_def_cfa_offset 16
 422              		.cfi_offset 4, -16
 423              		.cfi_offset 5, -12
 424              		.cfi_offset 6, -8
 425              		.cfi_offset 14, -4
 426 0002 0B00     		movs	r3, r1
 390:Drivers/STM32G0xx_HAL_Driver/Src/stm32g0xx_hal_uart_ex.c ****   {
 427              		.loc 1 390 3 is_stmt 1 view .LVU100
 390:Drivers/STM32G0xx_HAL_Driver/Src/stm32g0xx_hal_uart_ex.c ****   {
 428              		.loc 1 390 6 is_stmt 0 view .LVU101
 429 0004 0028     		cmp	r0, #0
 430 0006 14D0     		beq	.L21
 396:Drivers/STM32G0xx_HAL_Driver/Src/stm32g0xx_hal_uart_ex.c **** 
 431              		.loc 1 396 3 is_stmt 1 view .LVU102
 398:Drivers/STM32G0xx_HAL_Driver/Src/stm32g0xx_hal_uart_ex.c **** 
 432              		.loc 1 398 3 view .LVU103
 398:Drivers/STM32G0xx_HAL_Driver/Src/stm32g0xx_hal_uart_ex.c **** 
 433              		.loc 1 398 17 is_stmt 0 view .LVU104
 434 0008 8822     		movs	r2, #136
 435 000a 2421     		movs	r1, #36
 436              	.LVL30:
 398:Drivers/STM32G0xx_HAL_Driver/Src/stm32g0xx_hal_uart_ex.c **** 
 437              		.loc 1 398 17 view .LVU105
 438 000c 8150     		str	r1, [r0, r2]
 401:Drivers/STM32G0xx_HAL_Driver/Src/stm32g0xx_hal_uart_ex.c **** 
 439              		.loc 1 401 3 is_stmt 1 view .LVU106
 440 000e 0168     		ldr	r1, [r0]
 441 0010 0A68     		ldr	r2, [r1]
 442 0012 0124     		movs	r4, #1
 443 0014 A243     		bics	r2, r4
 444 0016 0A60     		str	r2, [r1]
 404:Drivers/STM32G0xx_HAL_Driver/Src/stm32g0xx_hal_uart_ex.c **** 
 445              		.loc 1 404 3 view .LVU107
 446 0018 0268     		ldr	r2, [r0]
 447 001a 5168     		ldr	r1, [r2, #4]
ARM GAS  C:\Users\W_LINU~1\AppData\Local\Temp\ccQ78mwl.s 			page 29


 448 001c 1025     		movs	r5, #16
 449 001e A943     		bics	r1, r5
 450 0020 1943     		orrs	r1, r3
 451 0022 5160     		str	r1, [r2, #4]
 407:Drivers/STM32G0xx_HAL_Driver/Src/stm32g0xx_hal_uart_ex.c **** 
 452              		.loc 1 407 3 view .LVU108
 453 0024 0268     		ldr	r2, [r0]
 454 0026 1368     		ldr	r3, [r2]
 455              	.LVL31:
 407:Drivers/STM32G0xx_HAL_Driver/Src/stm32g0xx_hal_uart_ex.c **** 
 456              		.loc 1 407 3 is_stmt 0 view .LVU109
 457 0028 2343     		orrs	r3, r4
 458 002a 1360     		str	r3, [r2]
 410:Drivers/STM32G0xx_HAL_Driver/Src/stm32g0xx_hal_uart_ex.c **** }
 459              		.loc 1 410 3 is_stmt 1 view .LVU110
 410:Drivers/STM32G0xx_HAL_Driver/Src/stm32g0xx_hal_uart_ex.c **** }
 460              		.loc 1 410 11 is_stmt 0 view .LVU111
 461 002c FFF7FEFF 		bl	UART_CheckIdleState
 462              	.LVL32:
 463              	.L20:
 411:Drivers/STM32G0xx_HAL_Driver/Src/stm32g0xx_hal_uart_ex.c **** 
 464              		.loc 1 411 1 view .LVU112
 465              		@ sp needed
 466 0030 70BD     		pop	{r4, r5, r6, pc}
 467              	.LVL33:
 468              	.L21:
 392:Drivers/STM32G0xx_HAL_Driver/Src/stm32g0xx_hal_uart_ex.c ****   }
 469              		.loc 1 392 12 view .LVU113
 470 0032 0120     		movs	r0, #1
 471              	.LVL34:
 392:Drivers/STM32G0xx_HAL_Driver/Src/stm32g0xx_hal_uart_ex.c ****   }
 472              		.loc 1 392 12 view .LVU114
 473 0034 FCE7     		b	.L20
 474              		.cfi_endproc
 475              	.LFE294:
 477              		.section	.text.HAL_UARTEx_StopModeWakeUpSourceConfig,"ax",%progbits
 478              		.align	1
 479              		.global	HAL_UARTEx_StopModeWakeUpSourceConfig
 480              		.syntax unified
 481              		.code	16
 482              		.thumb_func
 484              	HAL_UARTEx_StopModeWakeUpSourceConfig:
 485              	.LVL35:
 486              	.LFB295:
 426:Drivers/STM32G0xx_HAL_Driver/Src/stm32g0xx_hal_uart_ex.c ****   HAL_StatusTypeDef status = HAL_OK;
 487              		.loc 1 426 1 is_stmt 1 view -0
 488              		.cfi_startproc
 489              		@ args = 0, pretend = 0, frame = 8
 490              		@ frame_needed = 0, uses_anonymous_args = 0
 426:Drivers/STM32G0xx_HAL_Driver/Src/stm32g0xx_hal_uart_ex.c ****   HAL_StatusTypeDef status = HAL_OK;
 491              		.loc 1 426 1 is_stmt 0 view .LVU116
 492 0000 10B5     		push	{r4, lr}
 493              	.LCFI4:
 494              		.cfi_def_cfa_offset 8
 495              		.cfi_offset 4, -8
 496              		.cfi_offset 14, -4
 497 0002 84B0     		sub	sp, sp, #16
ARM GAS  C:\Users\W_LINU~1\AppData\Local\Temp\ccQ78mwl.s 			page 30


 498              	.LCFI5:
 499              		.cfi_def_cfa_offset 24
 500 0004 0400     		movs	r4, r0
 501 0006 0291     		str	r1, [sp, #8]
 502 0008 0392     		str	r2, [sp, #12]
 427:Drivers/STM32G0xx_HAL_Driver/Src/stm32g0xx_hal_uart_ex.c ****   uint32_t tickstart;
 503              		.loc 1 427 3 is_stmt 1 view .LVU117
 504              	.LVL36:
 428:Drivers/STM32G0xx_HAL_Driver/Src/stm32g0xx_hal_uart_ex.c **** 
 505              		.loc 1 428 3 view .LVU118
 431:Drivers/STM32G0xx_HAL_Driver/Src/stm32g0xx_hal_uart_ex.c ****   /* check the wake-up selection parameter */
 506              		.loc 1 431 3 view .LVU119
 433:Drivers/STM32G0xx_HAL_Driver/Src/stm32g0xx_hal_uart_ex.c **** 
 507              		.loc 1 433 3 view .LVU120
 436:Drivers/STM32G0xx_HAL_Driver/Src/stm32g0xx_hal_uart_ex.c **** 
 508              		.loc 1 436 3 view .LVU121
 436:Drivers/STM32G0xx_HAL_Driver/Src/stm32g0xx_hal_uart_ex.c **** 
 509              		.loc 1 436 3 view .LVU122
 510 000a 8423     		movs	r3, #132
 511 000c C35C     		ldrb	r3, [r0, r3]
 512 000e 012B     		cmp	r3, #1
 513 0010 33D0     		beq	.L26
 436:Drivers/STM32G0xx_HAL_Driver/Src/stm32g0xx_hal_uart_ex.c **** 
 514              		.loc 1 436 3 discriminator 2 view .LVU123
 515 0012 0121     		movs	r1, #1
 516 0014 8423     		movs	r3, #132
 517 0016 C154     		strb	r1, [r0, r3]
 436:Drivers/STM32G0xx_HAL_Driver/Src/stm32g0xx_hal_uart_ex.c **** 
 518              		.loc 1 436 3 discriminator 2 view .LVU124
 438:Drivers/STM32G0xx_HAL_Driver/Src/stm32g0xx_hal_uart_ex.c **** 
 519              		.loc 1 438 3 discriminator 2 view .LVU125
 438:Drivers/STM32G0xx_HAL_Driver/Src/stm32g0xx_hal_uart_ex.c **** 
 520              		.loc 1 438 17 is_stmt 0 discriminator 2 view .LVU126
 521 0018 0433     		adds	r3, r3, #4
 522 001a 2422     		movs	r2, #36
 523 001c C250     		str	r2, [r0, r3]
 441:Drivers/STM32G0xx_HAL_Driver/Src/stm32g0xx_hal_uart_ex.c **** 
 524              		.loc 1 441 3 is_stmt 1 discriminator 2 view .LVU127
 525 001e 0268     		ldr	r2, [r0]
 526 0020 1368     		ldr	r3, [r2]
 527 0022 8B43     		bics	r3, r1
 528 0024 1360     		str	r3, [r2]
 444:Drivers/STM32G0xx_HAL_Driver/Src/stm32g0xx_hal_uart_ex.c **** 
 529              		.loc 1 444 3 discriminator 2 view .LVU128
 530 0026 0168     		ldr	r1, [r0]
 531 0028 8B68     		ldr	r3, [r1, #8]
 532 002a 154A     		ldr	r2, .L29
 533 002c 1340     		ands	r3, r2
 534 002e 029A     		ldr	r2, [sp, #8]
 535 0030 1343     		orrs	r3, r2
 536 0032 8B60     		str	r3, [r1, #8]
 446:Drivers/STM32G0xx_HAL_Driver/Src/stm32g0xx_hal_uart_ex.c ****   {
 537              		.loc 1 446 3 discriminator 2 view .LVU129
 446:Drivers/STM32G0xx_HAL_Driver/Src/stm32g0xx_hal_uart_ex.c ****   {
 538              		.loc 1 446 6 is_stmt 0 discriminator 2 view .LVU130
 539 0034 002A     		cmp	r2, #0
 540 0036 15D0     		beq	.L28
ARM GAS  C:\Users\W_LINU~1\AppData\Local\Temp\ccQ78mwl.s 			page 31


 541              	.LVL37:
 542              	.L24:
 452:Drivers/STM32G0xx_HAL_Driver/Src/stm32g0xx_hal_uart_ex.c **** 
 543              		.loc 1 452 3 is_stmt 1 view .LVU131
 544 0038 2268     		ldr	r2, [r4]
 545 003a 1368     		ldr	r3, [r2]
 546 003c 0121     		movs	r1, #1
 547 003e 0B43     		orrs	r3, r1
 548 0040 1360     		str	r3, [r2]
 455:Drivers/STM32G0xx_HAL_Driver/Src/stm32g0xx_hal_uart_ex.c **** 
 549              		.loc 1 455 3 view .LVU132
 455:Drivers/STM32G0xx_HAL_Driver/Src/stm32g0xx_hal_uart_ex.c **** 
 550              		.loc 1 455 15 is_stmt 0 view .LVU133
 551 0042 FFF7FEFF 		bl	HAL_GetTick
 552              	.LVL38:
 553 0046 0300     		movs	r3, r0
 554              	.LVL39:
 458:Drivers/STM32G0xx_HAL_Driver/Src/stm32g0xx_hal_uart_ex.c ****   {
 555              		.loc 1 458 3 is_stmt 1 view .LVU134
 458:Drivers/STM32G0xx_HAL_Driver/Src/stm32g0xx_hal_uart_ex.c ****   {
 556              		.loc 1 458 7 is_stmt 0 view .LVU135
 557 0048 8021     		movs	r1, #128
 558 004a 0E4A     		ldr	r2, .L29+4
 559 004c 0092     		str	r2, [sp]
 560 004e 0022     		movs	r2, #0
 561 0050 C903     		lsls	r1, r1, #15
 562 0052 2000     		movs	r0, r4
 563              	.LVL40:
 458:Drivers/STM32G0xx_HAL_Driver/Src/stm32g0xx_hal_uart_ex.c ****   {
 564              		.loc 1 458 7 view .LVU136
 565 0054 FFF7FEFF 		bl	UART_WaitOnFlagUntilTimeout
 566              	.LVL41:
 458:Drivers/STM32G0xx_HAL_Driver/Src/stm32g0xx_hal_uart_ex.c ****   {
 567              		.loc 1 458 6 view .LVU137
 568 0058 0028     		cmp	r0, #0
 569 005a 08D1     		bne	.L27
 465:Drivers/STM32G0xx_HAL_Driver/Src/stm32g0xx_hal_uart_ex.c ****   }
 570              		.loc 1 465 5 is_stmt 1 view .LVU138
 465:Drivers/STM32G0xx_HAL_Driver/Src/stm32g0xx_hal_uart_ex.c ****   }
 571              		.loc 1 465 19 is_stmt 0 view .LVU139
 572 005c 8823     		movs	r3, #136
 573 005e 2022     		movs	r2, #32
 574 0060 E250     		str	r2, [r4, r3]
 575 0062 05E0     		b	.L25
 576              	.LVL42:
 577              	.L28:
 448:Drivers/STM32G0xx_HAL_Driver/Src/stm32g0xx_hal_uart_ex.c ****   }
 578              		.loc 1 448 5 is_stmt 1 view .LVU140
 579 0064 1100     		movs	r1, r2
 580 0066 039A     		ldr	r2, [sp, #12]
 581 0068 FFF7FEFF 		bl	UARTEx_Wakeup_AddressConfig
 582              	.LVL43:
 448:Drivers/STM32G0xx_HAL_Driver/Src/stm32g0xx_hal_uart_ex.c ****   }
 583              		.loc 1 448 5 is_stmt 0 view .LVU141
 584 006c E4E7     		b	.L24
 585              	.LVL44:
 586              	.L27:
ARM GAS  C:\Users\W_LINU~1\AppData\Local\Temp\ccQ78mwl.s 			page 32


 460:Drivers/STM32G0xx_HAL_Driver/Src/stm32g0xx_hal_uart_ex.c ****   }
 587              		.loc 1 460 12 view .LVU142
 588 006e 0320     		movs	r0, #3
 589              	.L25:
 590              	.LVL45:
 469:Drivers/STM32G0xx_HAL_Driver/Src/stm32g0xx_hal_uart_ex.c **** 
 591              		.loc 1 469 3 is_stmt 1 view .LVU143
 469:Drivers/STM32G0xx_HAL_Driver/Src/stm32g0xx_hal_uart_ex.c **** 
 592              		.loc 1 469 3 view .LVU144
 593 0070 8423     		movs	r3, #132
 594 0072 0022     		movs	r2, #0
 595 0074 E254     		strb	r2, [r4, r3]
 469:Drivers/STM32G0xx_HAL_Driver/Src/stm32g0xx_hal_uart_ex.c **** 
 596              		.loc 1 469 3 view .LVU145
 471:Drivers/STM32G0xx_HAL_Driver/Src/stm32g0xx_hal_uart_ex.c **** }
 597              		.loc 1 471 3 view .LVU146
 598              	.LVL46:
 599              	.L23:
 472:Drivers/STM32G0xx_HAL_Driver/Src/stm32g0xx_hal_uart_ex.c **** 
 600              		.loc 1 472 1 is_stmt 0 view .LVU147
 601 0076 04B0     		add	sp, sp, #16
 602              		@ sp needed
 603              	.LVL47:
 472:Drivers/STM32G0xx_HAL_Driver/Src/stm32g0xx_hal_uart_ex.c **** 
 604              		.loc 1 472 1 view .LVU148
 605 0078 10BD     		pop	{r4, pc}
 606              	.LVL48:
 607              	.L26:
 436:Drivers/STM32G0xx_HAL_Driver/Src/stm32g0xx_hal_uart_ex.c **** 
 608              		.loc 1 436 3 view .LVU149
 609 007a 0220     		movs	r0, #2
 610              	.LVL49:
 436:Drivers/STM32G0xx_HAL_Driver/Src/stm32g0xx_hal_uart_ex.c **** 
 611              		.loc 1 436 3 view .LVU150
 612 007c FBE7     		b	.L23
 613              	.L30:
 614 007e C046     		.align	2
 615              	.L29:
 616 0080 FFFFCFFF 		.word	-3145729
 617 0084 FFFFFF01 		.word	33554431
 618              		.cfi_endproc
 619              	.LFE295:
 621              		.section	.text.HAL_UARTEx_EnableStopMode,"ax",%progbits
 622              		.align	1
 623              		.global	HAL_UARTEx_EnableStopMode
 624              		.syntax unified
 625              		.code	16
 626              		.thumb_func
 628              	HAL_UARTEx_EnableStopMode:
 629              	.LVL50:
 630              	.LFB296:
 481:Drivers/STM32G0xx_HAL_Driver/Src/stm32g0xx_hal_uart_ex.c ****   /* Process Locked */
 631              		.loc 1 481 1 is_stmt 1 view -0
 632              		.cfi_startproc
 633              		@ args = 0, pretend = 0, frame = 0
 634              		@ frame_needed = 0, uses_anonymous_args = 0
 481:Drivers/STM32G0xx_HAL_Driver/Src/stm32g0xx_hal_uart_ex.c ****   /* Process Locked */
ARM GAS  C:\Users\W_LINU~1\AppData\Local\Temp\ccQ78mwl.s 			page 33


 635              		.loc 1 481 1 is_stmt 0 view .LVU152
 636 0000 10B5     		push	{r4, lr}
 637              	.LCFI6:
 638              		.cfi_def_cfa_offset 8
 639              		.cfi_offset 4, -8
 640              		.cfi_offset 14, -4
 483:Drivers/STM32G0xx_HAL_Driver/Src/stm32g0xx_hal_uart_ex.c **** 
 641              		.loc 1 483 3 is_stmt 1 view .LVU153
 483:Drivers/STM32G0xx_HAL_Driver/Src/stm32g0xx_hal_uart_ex.c **** 
 642              		.loc 1 483 3 view .LVU154
 643 0002 8423     		movs	r3, #132
 644 0004 C35C     		ldrb	r3, [r0, r3]
 645 0006 012B     		cmp	r3, #1
 646 0008 11D0     		beq	.L33
 483:Drivers/STM32G0xx_HAL_Driver/Src/stm32g0xx_hal_uart_ex.c **** 
 647              		.loc 1 483 3 discriminator 2 view .LVU155
 648 000a 8422     		movs	r2, #132
 649 000c 0123     		movs	r3, #1
 650 000e 8354     		strb	r3, [r0, r2]
 483:Drivers/STM32G0xx_HAL_Driver/Src/stm32g0xx_hal_uart_ex.c **** 
 651              		.loc 1 483 3 discriminator 2 view .LVU156
 486:Drivers/STM32G0xx_HAL_Driver/Src/stm32g0xx_hal_uart_ex.c **** 
 652              		.loc 1 486 3 discriminator 2 view .LVU157
 653              	.LBB30:
 486:Drivers/STM32G0xx_HAL_Driver/Src/stm32g0xx_hal_uart_ex.c **** 
 654              		.loc 1 486 3 discriminator 2 view .LVU158
 486:Drivers/STM32G0xx_HAL_Driver/Src/stm32g0xx_hal_uart_ex.c **** 
 655              		.loc 1 486 3 discriminator 2 view .LVU159
 656              	.LBB31:
 657              	.LBI31:
 658              		.file 2 "Drivers/CMSIS/Include/cmsis_gcc.h"
   1:Drivers/CMSIS/Include/cmsis_gcc.h **** /**************************************************************************//**
   2:Drivers/CMSIS/Include/cmsis_gcc.h ****  * @file     cmsis_gcc.h
   3:Drivers/CMSIS/Include/cmsis_gcc.h ****  * @brief    CMSIS compiler GCC header file
   4:Drivers/CMSIS/Include/cmsis_gcc.h ****  * @version  V5.2.0
   5:Drivers/CMSIS/Include/cmsis_gcc.h ****  * @date     08. May 2019
   6:Drivers/CMSIS/Include/cmsis_gcc.h ****  ******************************************************************************/
   7:Drivers/CMSIS/Include/cmsis_gcc.h **** /*
   8:Drivers/CMSIS/Include/cmsis_gcc.h ****  * Copyright (c) 2009-2019 Arm Limited. All rights reserved.
   9:Drivers/CMSIS/Include/cmsis_gcc.h ****  *
  10:Drivers/CMSIS/Include/cmsis_gcc.h ****  * SPDX-License-Identifier: Apache-2.0
  11:Drivers/CMSIS/Include/cmsis_gcc.h ****  *
  12:Drivers/CMSIS/Include/cmsis_gcc.h ****  * Licensed under the Apache License, Version 2.0 (the License); you may
  13:Drivers/CMSIS/Include/cmsis_gcc.h ****  * not use this file except in compliance with the License.
  14:Drivers/CMSIS/Include/cmsis_gcc.h ****  * You may obtain a copy of the License at
  15:Drivers/CMSIS/Include/cmsis_gcc.h ****  *
  16:Drivers/CMSIS/Include/cmsis_gcc.h ****  * www.apache.org/licenses/LICENSE-2.0
  17:Drivers/CMSIS/Include/cmsis_gcc.h ****  *
  18:Drivers/CMSIS/Include/cmsis_gcc.h ****  * Unless required by applicable law or agreed to in writing, software
  19:Drivers/CMSIS/Include/cmsis_gcc.h ****  * distributed under the License is distributed on an AS IS BASIS, WITHOUT
  20:Drivers/CMSIS/Include/cmsis_gcc.h ****  * WARRANTIES OR CONDITIONS OF ANY KIND, either express or implied.
  21:Drivers/CMSIS/Include/cmsis_gcc.h ****  * See the License for the specific language governing permissions and
  22:Drivers/CMSIS/Include/cmsis_gcc.h ****  * limitations under the License.
  23:Drivers/CMSIS/Include/cmsis_gcc.h ****  */
  24:Drivers/CMSIS/Include/cmsis_gcc.h **** 
  25:Drivers/CMSIS/Include/cmsis_gcc.h **** #ifndef __CMSIS_GCC_H
  26:Drivers/CMSIS/Include/cmsis_gcc.h **** #define __CMSIS_GCC_H
ARM GAS  C:\Users\W_LINU~1\AppData\Local\Temp\ccQ78mwl.s 			page 34


  27:Drivers/CMSIS/Include/cmsis_gcc.h **** 
  28:Drivers/CMSIS/Include/cmsis_gcc.h **** /* ignore some GCC warnings */
  29:Drivers/CMSIS/Include/cmsis_gcc.h **** #pragma GCC diagnostic push
  30:Drivers/CMSIS/Include/cmsis_gcc.h **** #pragma GCC diagnostic ignored "-Wsign-conversion"
  31:Drivers/CMSIS/Include/cmsis_gcc.h **** #pragma GCC diagnostic ignored "-Wconversion"
  32:Drivers/CMSIS/Include/cmsis_gcc.h **** #pragma GCC diagnostic ignored "-Wunused-parameter"
  33:Drivers/CMSIS/Include/cmsis_gcc.h **** 
  34:Drivers/CMSIS/Include/cmsis_gcc.h **** /* Fallback for __has_builtin */
  35:Drivers/CMSIS/Include/cmsis_gcc.h **** #ifndef __has_builtin
  36:Drivers/CMSIS/Include/cmsis_gcc.h ****   #define __has_builtin(x) (0)
  37:Drivers/CMSIS/Include/cmsis_gcc.h **** #endif
  38:Drivers/CMSIS/Include/cmsis_gcc.h **** 
  39:Drivers/CMSIS/Include/cmsis_gcc.h **** /* CMSIS compiler specific defines */
  40:Drivers/CMSIS/Include/cmsis_gcc.h **** #ifndef   __ASM
  41:Drivers/CMSIS/Include/cmsis_gcc.h ****   #define __ASM                                  __asm
  42:Drivers/CMSIS/Include/cmsis_gcc.h **** #endif
  43:Drivers/CMSIS/Include/cmsis_gcc.h **** #ifndef   __INLINE
  44:Drivers/CMSIS/Include/cmsis_gcc.h ****   #define __INLINE                               inline
  45:Drivers/CMSIS/Include/cmsis_gcc.h **** #endif
  46:Drivers/CMSIS/Include/cmsis_gcc.h **** #ifndef   __STATIC_INLINE
  47:Drivers/CMSIS/Include/cmsis_gcc.h ****   #define __STATIC_INLINE                        static inline
  48:Drivers/CMSIS/Include/cmsis_gcc.h **** #endif
  49:Drivers/CMSIS/Include/cmsis_gcc.h **** #ifndef   __STATIC_FORCEINLINE                 
  50:Drivers/CMSIS/Include/cmsis_gcc.h ****   #define __STATIC_FORCEINLINE                   __attribute__((always_inline)) static inline
  51:Drivers/CMSIS/Include/cmsis_gcc.h **** #endif                                           
  52:Drivers/CMSIS/Include/cmsis_gcc.h **** #ifndef   __NO_RETURN
  53:Drivers/CMSIS/Include/cmsis_gcc.h ****   #define __NO_RETURN                            __attribute__((__noreturn__))
  54:Drivers/CMSIS/Include/cmsis_gcc.h **** #endif
  55:Drivers/CMSIS/Include/cmsis_gcc.h **** #ifndef   __USED
  56:Drivers/CMSIS/Include/cmsis_gcc.h ****   #define __USED                                 __attribute__((used))
  57:Drivers/CMSIS/Include/cmsis_gcc.h **** #endif
  58:Drivers/CMSIS/Include/cmsis_gcc.h **** #ifndef   __WEAK
  59:Drivers/CMSIS/Include/cmsis_gcc.h ****   #define __WEAK                                 __attribute__((weak))
  60:Drivers/CMSIS/Include/cmsis_gcc.h **** #endif
  61:Drivers/CMSIS/Include/cmsis_gcc.h **** #ifndef   __PACKED
  62:Drivers/CMSIS/Include/cmsis_gcc.h ****   #define __PACKED                               __attribute__((packed, aligned(1)))
  63:Drivers/CMSIS/Include/cmsis_gcc.h **** #endif
  64:Drivers/CMSIS/Include/cmsis_gcc.h **** #ifndef   __PACKED_STRUCT
  65:Drivers/CMSIS/Include/cmsis_gcc.h ****   #define __PACKED_STRUCT                        struct __attribute__((packed, aligned(1)))
  66:Drivers/CMSIS/Include/cmsis_gcc.h **** #endif
  67:Drivers/CMSIS/Include/cmsis_gcc.h **** #ifndef   __PACKED_UNION
  68:Drivers/CMSIS/Include/cmsis_gcc.h ****   #define __PACKED_UNION                         union __attribute__((packed, aligned(1)))
  69:Drivers/CMSIS/Include/cmsis_gcc.h **** #endif
  70:Drivers/CMSIS/Include/cmsis_gcc.h **** #ifndef   __UNALIGNED_UINT32        /* deprecated */
  71:Drivers/CMSIS/Include/cmsis_gcc.h ****   #pragma GCC diagnostic push
  72:Drivers/CMSIS/Include/cmsis_gcc.h ****   #pragma GCC diagnostic ignored "-Wpacked"
  73:Drivers/CMSIS/Include/cmsis_gcc.h ****   #pragma GCC diagnostic ignored "-Wattributes"
  74:Drivers/CMSIS/Include/cmsis_gcc.h ****   struct __attribute__((packed)) T_UINT32 { uint32_t v; };
  75:Drivers/CMSIS/Include/cmsis_gcc.h ****   #pragma GCC diagnostic pop
  76:Drivers/CMSIS/Include/cmsis_gcc.h ****   #define __UNALIGNED_UINT32(x)                  (((struct T_UINT32 *)(x))->v)
  77:Drivers/CMSIS/Include/cmsis_gcc.h **** #endif
  78:Drivers/CMSIS/Include/cmsis_gcc.h **** #ifndef   __UNALIGNED_UINT16_WRITE
  79:Drivers/CMSIS/Include/cmsis_gcc.h ****   #pragma GCC diagnostic push
  80:Drivers/CMSIS/Include/cmsis_gcc.h ****   #pragma GCC diagnostic ignored "-Wpacked"
  81:Drivers/CMSIS/Include/cmsis_gcc.h ****   #pragma GCC diagnostic ignored "-Wattributes"
  82:Drivers/CMSIS/Include/cmsis_gcc.h ****   __PACKED_STRUCT T_UINT16_WRITE { uint16_t v; };
  83:Drivers/CMSIS/Include/cmsis_gcc.h ****   #pragma GCC diagnostic pop
ARM GAS  C:\Users\W_LINU~1\AppData\Local\Temp\ccQ78mwl.s 			page 35


  84:Drivers/CMSIS/Include/cmsis_gcc.h ****   #define __UNALIGNED_UINT16_WRITE(addr, val)    (void)((((struct T_UINT16_WRITE *)(void *)(addr))-
  85:Drivers/CMSIS/Include/cmsis_gcc.h **** #endif
  86:Drivers/CMSIS/Include/cmsis_gcc.h **** #ifndef   __UNALIGNED_UINT16_READ
  87:Drivers/CMSIS/Include/cmsis_gcc.h ****   #pragma GCC diagnostic push
  88:Drivers/CMSIS/Include/cmsis_gcc.h ****   #pragma GCC diagnostic ignored "-Wpacked"
  89:Drivers/CMSIS/Include/cmsis_gcc.h ****   #pragma GCC diagnostic ignored "-Wattributes"
  90:Drivers/CMSIS/Include/cmsis_gcc.h ****   __PACKED_STRUCT T_UINT16_READ { uint16_t v; };
  91:Drivers/CMSIS/Include/cmsis_gcc.h ****   #pragma GCC diagnostic pop
  92:Drivers/CMSIS/Include/cmsis_gcc.h ****   #define __UNALIGNED_UINT16_READ(addr)          (((const struct T_UINT16_READ *)(const void *)(add
  93:Drivers/CMSIS/Include/cmsis_gcc.h **** #endif
  94:Drivers/CMSIS/Include/cmsis_gcc.h **** #ifndef   __UNALIGNED_UINT32_WRITE
  95:Drivers/CMSIS/Include/cmsis_gcc.h ****   #pragma GCC diagnostic push
  96:Drivers/CMSIS/Include/cmsis_gcc.h ****   #pragma GCC diagnostic ignored "-Wpacked"
  97:Drivers/CMSIS/Include/cmsis_gcc.h ****   #pragma GCC diagnostic ignored "-Wattributes"
  98:Drivers/CMSIS/Include/cmsis_gcc.h ****   __PACKED_STRUCT T_UINT32_WRITE { uint32_t v; };
  99:Drivers/CMSIS/Include/cmsis_gcc.h ****   #pragma GCC diagnostic pop
 100:Drivers/CMSIS/Include/cmsis_gcc.h ****   #define __UNALIGNED_UINT32_WRITE(addr, val)    (void)((((struct T_UINT32_WRITE *)(void *)(addr))-
 101:Drivers/CMSIS/Include/cmsis_gcc.h **** #endif
 102:Drivers/CMSIS/Include/cmsis_gcc.h **** #ifndef   __UNALIGNED_UINT32_READ
 103:Drivers/CMSIS/Include/cmsis_gcc.h ****   #pragma GCC diagnostic push
 104:Drivers/CMSIS/Include/cmsis_gcc.h ****   #pragma GCC diagnostic ignored "-Wpacked"
 105:Drivers/CMSIS/Include/cmsis_gcc.h ****   #pragma GCC diagnostic ignored "-Wattributes"
 106:Drivers/CMSIS/Include/cmsis_gcc.h ****   __PACKED_STRUCT T_UINT32_READ { uint32_t v; };
 107:Drivers/CMSIS/Include/cmsis_gcc.h ****   #pragma GCC diagnostic pop
 108:Drivers/CMSIS/Include/cmsis_gcc.h ****   #define __UNALIGNED_UINT32_READ(addr)          (((const struct T_UINT32_READ *)(const void *)(add
 109:Drivers/CMSIS/Include/cmsis_gcc.h **** #endif
 110:Drivers/CMSIS/Include/cmsis_gcc.h **** #ifndef   __ALIGNED
 111:Drivers/CMSIS/Include/cmsis_gcc.h ****   #define __ALIGNED(x)                           __attribute__((aligned(x)))
 112:Drivers/CMSIS/Include/cmsis_gcc.h **** #endif
 113:Drivers/CMSIS/Include/cmsis_gcc.h **** #ifndef   __RESTRICT
 114:Drivers/CMSIS/Include/cmsis_gcc.h ****   #define __RESTRICT                             __restrict
 115:Drivers/CMSIS/Include/cmsis_gcc.h **** #endif
 116:Drivers/CMSIS/Include/cmsis_gcc.h **** #ifndef   __COMPILER_BARRIER
 117:Drivers/CMSIS/Include/cmsis_gcc.h ****   #define __COMPILER_BARRIER()                   __ASM volatile("":::"memory")
 118:Drivers/CMSIS/Include/cmsis_gcc.h **** #endif
 119:Drivers/CMSIS/Include/cmsis_gcc.h **** 
 120:Drivers/CMSIS/Include/cmsis_gcc.h **** /* #########################  Startup and Lowlevel Init  ######################## */
 121:Drivers/CMSIS/Include/cmsis_gcc.h **** 
 122:Drivers/CMSIS/Include/cmsis_gcc.h **** #ifndef __PROGRAM_START
 123:Drivers/CMSIS/Include/cmsis_gcc.h **** 
 124:Drivers/CMSIS/Include/cmsis_gcc.h **** /**
 125:Drivers/CMSIS/Include/cmsis_gcc.h ****   \brief   Initializes data and bss sections
 126:Drivers/CMSIS/Include/cmsis_gcc.h ****   \details This default implementations initialized all data and additional bss
 127:Drivers/CMSIS/Include/cmsis_gcc.h ****            sections relying on .copy.table and .zero.table specified properly
 128:Drivers/CMSIS/Include/cmsis_gcc.h ****            in the used linker script.
 129:Drivers/CMSIS/Include/cmsis_gcc.h ****   
 130:Drivers/CMSIS/Include/cmsis_gcc.h ****  */
 131:Drivers/CMSIS/Include/cmsis_gcc.h **** __STATIC_FORCEINLINE __NO_RETURN void __cmsis_start(void)
 132:Drivers/CMSIS/Include/cmsis_gcc.h **** {
 133:Drivers/CMSIS/Include/cmsis_gcc.h ****   extern void _start(void) __NO_RETURN;
 134:Drivers/CMSIS/Include/cmsis_gcc.h ****   
 135:Drivers/CMSIS/Include/cmsis_gcc.h ****   typedef struct {
 136:Drivers/CMSIS/Include/cmsis_gcc.h ****     uint32_t const* src;
 137:Drivers/CMSIS/Include/cmsis_gcc.h ****     uint32_t* dest;
 138:Drivers/CMSIS/Include/cmsis_gcc.h ****     uint32_t  wlen;
 139:Drivers/CMSIS/Include/cmsis_gcc.h ****   } __copy_table_t;
 140:Drivers/CMSIS/Include/cmsis_gcc.h ****   
ARM GAS  C:\Users\W_LINU~1\AppData\Local\Temp\ccQ78mwl.s 			page 36


 141:Drivers/CMSIS/Include/cmsis_gcc.h ****   typedef struct {
 142:Drivers/CMSIS/Include/cmsis_gcc.h ****     uint32_t* dest;
 143:Drivers/CMSIS/Include/cmsis_gcc.h ****     uint32_t  wlen;
 144:Drivers/CMSIS/Include/cmsis_gcc.h ****   } __zero_table_t;
 145:Drivers/CMSIS/Include/cmsis_gcc.h ****   
 146:Drivers/CMSIS/Include/cmsis_gcc.h ****   extern const __copy_table_t __copy_table_start__;
 147:Drivers/CMSIS/Include/cmsis_gcc.h ****   extern const __copy_table_t __copy_table_end__;
 148:Drivers/CMSIS/Include/cmsis_gcc.h ****   extern const __zero_table_t __zero_table_start__;
 149:Drivers/CMSIS/Include/cmsis_gcc.h ****   extern const __zero_table_t __zero_table_end__;
 150:Drivers/CMSIS/Include/cmsis_gcc.h **** 
 151:Drivers/CMSIS/Include/cmsis_gcc.h ****   for (__copy_table_t const* pTable = &__copy_table_start__; pTable < &__copy_table_end__; ++pTable
 152:Drivers/CMSIS/Include/cmsis_gcc.h ****     for(uint32_t i=0u; i<pTable->wlen; ++i) {
 153:Drivers/CMSIS/Include/cmsis_gcc.h ****       pTable->dest[i] = pTable->src[i];
 154:Drivers/CMSIS/Include/cmsis_gcc.h ****     }
 155:Drivers/CMSIS/Include/cmsis_gcc.h ****   }
 156:Drivers/CMSIS/Include/cmsis_gcc.h ****  
 157:Drivers/CMSIS/Include/cmsis_gcc.h ****   for (__zero_table_t const* pTable = &__zero_table_start__; pTable < &__zero_table_end__; ++pTable
 158:Drivers/CMSIS/Include/cmsis_gcc.h ****     for(uint32_t i=0u; i<pTable->wlen; ++i) {
 159:Drivers/CMSIS/Include/cmsis_gcc.h ****       pTable->dest[i] = 0u;
 160:Drivers/CMSIS/Include/cmsis_gcc.h ****     }
 161:Drivers/CMSIS/Include/cmsis_gcc.h ****   }
 162:Drivers/CMSIS/Include/cmsis_gcc.h ****  
 163:Drivers/CMSIS/Include/cmsis_gcc.h ****   _start();
 164:Drivers/CMSIS/Include/cmsis_gcc.h **** }
 165:Drivers/CMSIS/Include/cmsis_gcc.h ****   
 166:Drivers/CMSIS/Include/cmsis_gcc.h **** #define __PROGRAM_START           __cmsis_start
 167:Drivers/CMSIS/Include/cmsis_gcc.h **** #endif
 168:Drivers/CMSIS/Include/cmsis_gcc.h **** 
 169:Drivers/CMSIS/Include/cmsis_gcc.h **** #ifndef __INITIAL_SP
 170:Drivers/CMSIS/Include/cmsis_gcc.h **** #define __INITIAL_SP              __StackTop
 171:Drivers/CMSIS/Include/cmsis_gcc.h **** #endif
 172:Drivers/CMSIS/Include/cmsis_gcc.h **** 
 173:Drivers/CMSIS/Include/cmsis_gcc.h **** #ifndef __STACK_LIMIT
 174:Drivers/CMSIS/Include/cmsis_gcc.h **** #define __STACK_LIMIT             __StackLimit
 175:Drivers/CMSIS/Include/cmsis_gcc.h **** #endif
 176:Drivers/CMSIS/Include/cmsis_gcc.h **** 
 177:Drivers/CMSIS/Include/cmsis_gcc.h **** #ifndef __VECTOR_TABLE
 178:Drivers/CMSIS/Include/cmsis_gcc.h **** #define __VECTOR_TABLE            __Vectors
 179:Drivers/CMSIS/Include/cmsis_gcc.h **** #endif
 180:Drivers/CMSIS/Include/cmsis_gcc.h **** 
 181:Drivers/CMSIS/Include/cmsis_gcc.h **** #ifndef __VECTOR_TABLE_ATTRIBUTE
 182:Drivers/CMSIS/Include/cmsis_gcc.h **** #define __VECTOR_TABLE_ATTRIBUTE  __attribute((used, section(".vectors")))
 183:Drivers/CMSIS/Include/cmsis_gcc.h **** #endif
 184:Drivers/CMSIS/Include/cmsis_gcc.h **** 
 185:Drivers/CMSIS/Include/cmsis_gcc.h **** /* ###########################  Core Function Access  ########################### */
 186:Drivers/CMSIS/Include/cmsis_gcc.h **** /** \ingroup  CMSIS_Core_FunctionInterface
 187:Drivers/CMSIS/Include/cmsis_gcc.h ****     \defgroup CMSIS_Core_RegAccFunctions CMSIS Core Register Access Functions
 188:Drivers/CMSIS/Include/cmsis_gcc.h ****   @{
 189:Drivers/CMSIS/Include/cmsis_gcc.h ****  */
 190:Drivers/CMSIS/Include/cmsis_gcc.h **** 
 191:Drivers/CMSIS/Include/cmsis_gcc.h **** /**
 192:Drivers/CMSIS/Include/cmsis_gcc.h ****   \brief   Enable IRQ Interrupts
 193:Drivers/CMSIS/Include/cmsis_gcc.h ****   \details Enables IRQ interrupts by clearing the I-bit in the CPSR.
 194:Drivers/CMSIS/Include/cmsis_gcc.h ****            Can only be executed in Privileged modes.
 195:Drivers/CMSIS/Include/cmsis_gcc.h ****  */
 196:Drivers/CMSIS/Include/cmsis_gcc.h **** __STATIC_FORCEINLINE void __enable_irq(void)
 197:Drivers/CMSIS/Include/cmsis_gcc.h **** {
ARM GAS  C:\Users\W_LINU~1\AppData\Local\Temp\ccQ78mwl.s 			page 37


 198:Drivers/CMSIS/Include/cmsis_gcc.h ****   __ASM volatile ("cpsie i" : : : "memory");
 199:Drivers/CMSIS/Include/cmsis_gcc.h **** }
 200:Drivers/CMSIS/Include/cmsis_gcc.h **** 
 201:Drivers/CMSIS/Include/cmsis_gcc.h **** 
 202:Drivers/CMSIS/Include/cmsis_gcc.h **** /**
 203:Drivers/CMSIS/Include/cmsis_gcc.h ****   \brief   Disable IRQ Interrupts
 204:Drivers/CMSIS/Include/cmsis_gcc.h ****   \details Disables IRQ interrupts by setting the I-bit in the CPSR.
 205:Drivers/CMSIS/Include/cmsis_gcc.h ****            Can only be executed in Privileged modes.
 206:Drivers/CMSIS/Include/cmsis_gcc.h ****  */
 207:Drivers/CMSIS/Include/cmsis_gcc.h **** __STATIC_FORCEINLINE void __disable_irq(void)
 208:Drivers/CMSIS/Include/cmsis_gcc.h **** {
 209:Drivers/CMSIS/Include/cmsis_gcc.h ****   __ASM volatile ("cpsid i" : : : "memory");
 210:Drivers/CMSIS/Include/cmsis_gcc.h **** }
 211:Drivers/CMSIS/Include/cmsis_gcc.h **** 
 212:Drivers/CMSIS/Include/cmsis_gcc.h **** 
 213:Drivers/CMSIS/Include/cmsis_gcc.h **** /**
 214:Drivers/CMSIS/Include/cmsis_gcc.h ****   \brief   Get Control Register
 215:Drivers/CMSIS/Include/cmsis_gcc.h ****   \details Returns the content of the Control Register.
 216:Drivers/CMSIS/Include/cmsis_gcc.h ****   \return               Control Register value
 217:Drivers/CMSIS/Include/cmsis_gcc.h ****  */
 218:Drivers/CMSIS/Include/cmsis_gcc.h **** __STATIC_FORCEINLINE uint32_t __get_CONTROL(void)
 219:Drivers/CMSIS/Include/cmsis_gcc.h **** {
 220:Drivers/CMSIS/Include/cmsis_gcc.h ****   uint32_t result;
 221:Drivers/CMSIS/Include/cmsis_gcc.h **** 
 222:Drivers/CMSIS/Include/cmsis_gcc.h ****   __ASM volatile ("MRS %0, control" : "=r" (result) );
 223:Drivers/CMSIS/Include/cmsis_gcc.h ****   return(result);
 224:Drivers/CMSIS/Include/cmsis_gcc.h **** }
 225:Drivers/CMSIS/Include/cmsis_gcc.h **** 
 226:Drivers/CMSIS/Include/cmsis_gcc.h **** 
 227:Drivers/CMSIS/Include/cmsis_gcc.h **** #if (defined (__ARM_FEATURE_CMSE ) && (__ARM_FEATURE_CMSE == 3))
 228:Drivers/CMSIS/Include/cmsis_gcc.h **** /**
 229:Drivers/CMSIS/Include/cmsis_gcc.h ****   \brief   Get Control Register (non-secure)
 230:Drivers/CMSIS/Include/cmsis_gcc.h ****   \details Returns the content of the non-secure Control Register when in secure mode.
 231:Drivers/CMSIS/Include/cmsis_gcc.h ****   \return               non-secure Control Register value
 232:Drivers/CMSIS/Include/cmsis_gcc.h ****  */
 233:Drivers/CMSIS/Include/cmsis_gcc.h **** __STATIC_FORCEINLINE uint32_t __TZ_get_CONTROL_NS(void)
 234:Drivers/CMSIS/Include/cmsis_gcc.h **** {
 235:Drivers/CMSIS/Include/cmsis_gcc.h ****   uint32_t result;
 236:Drivers/CMSIS/Include/cmsis_gcc.h **** 
 237:Drivers/CMSIS/Include/cmsis_gcc.h ****   __ASM volatile ("MRS %0, control_ns" : "=r" (result) );
 238:Drivers/CMSIS/Include/cmsis_gcc.h ****   return(result);
 239:Drivers/CMSIS/Include/cmsis_gcc.h **** }
 240:Drivers/CMSIS/Include/cmsis_gcc.h **** #endif
 241:Drivers/CMSIS/Include/cmsis_gcc.h **** 
 242:Drivers/CMSIS/Include/cmsis_gcc.h **** 
 243:Drivers/CMSIS/Include/cmsis_gcc.h **** /**
 244:Drivers/CMSIS/Include/cmsis_gcc.h ****   \brief   Set Control Register
 245:Drivers/CMSIS/Include/cmsis_gcc.h ****   \details Writes the given value to the Control Register.
 246:Drivers/CMSIS/Include/cmsis_gcc.h ****   \param [in]    control  Control Register value to set
 247:Drivers/CMSIS/Include/cmsis_gcc.h ****  */
 248:Drivers/CMSIS/Include/cmsis_gcc.h **** __STATIC_FORCEINLINE void __set_CONTROL(uint32_t control)
 249:Drivers/CMSIS/Include/cmsis_gcc.h **** {
 250:Drivers/CMSIS/Include/cmsis_gcc.h ****   __ASM volatile ("MSR control, %0" : : "r" (control) : "memory");
 251:Drivers/CMSIS/Include/cmsis_gcc.h **** }
 252:Drivers/CMSIS/Include/cmsis_gcc.h **** 
 253:Drivers/CMSIS/Include/cmsis_gcc.h **** 
 254:Drivers/CMSIS/Include/cmsis_gcc.h **** #if (defined (__ARM_FEATURE_CMSE ) && (__ARM_FEATURE_CMSE == 3))
ARM GAS  C:\Users\W_LINU~1\AppData\Local\Temp\ccQ78mwl.s 			page 38


 255:Drivers/CMSIS/Include/cmsis_gcc.h **** /**
 256:Drivers/CMSIS/Include/cmsis_gcc.h ****   \brief   Set Control Register (non-secure)
 257:Drivers/CMSIS/Include/cmsis_gcc.h ****   \details Writes the given value to the non-secure Control Register when in secure state.
 258:Drivers/CMSIS/Include/cmsis_gcc.h ****   \param [in]    control  Control Register value to set
 259:Drivers/CMSIS/Include/cmsis_gcc.h ****  */
 260:Drivers/CMSIS/Include/cmsis_gcc.h **** __STATIC_FORCEINLINE void __TZ_set_CONTROL_NS(uint32_t control)
 261:Drivers/CMSIS/Include/cmsis_gcc.h **** {
 262:Drivers/CMSIS/Include/cmsis_gcc.h ****   __ASM volatile ("MSR control_ns, %0" : : "r" (control) : "memory");
 263:Drivers/CMSIS/Include/cmsis_gcc.h **** }
 264:Drivers/CMSIS/Include/cmsis_gcc.h **** #endif
 265:Drivers/CMSIS/Include/cmsis_gcc.h **** 
 266:Drivers/CMSIS/Include/cmsis_gcc.h **** 
 267:Drivers/CMSIS/Include/cmsis_gcc.h **** /**
 268:Drivers/CMSIS/Include/cmsis_gcc.h ****   \brief   Get IPSR Register
 269:Drivers/CMSIS/Include/cmsis_gcc.h ****   \details Returns the content of the IPSR Register.
 270:Drivers/CMSIS/Include/cmsis_gcc.h ****   \return               IPSR Register value
 271:Drivers/CMSIS/Include/cmsis_gcc.h ****  */
 272:Drivers/CMSIS/Include/cmsis_gcc.h **** __STATIC_FORCEINLINE uint32_t __get_IPSR(void)
 273:Drivers/CMSIS/Include/cmsis_gcc.h **** {
 274:Drivers/CMSIS/Include/cmsis_gcc.h ****   uint32_t result;
 275:Drivers/CMSIS/Include/cmsis_gcc.h **** 
 276:Drivers/CMSIS/Include/cmsis_gcc.h ****   __ASM volatile ("MRS %0, ipsr" : "=r" (result) );
 277:Drivers/CMSIS/Include/cmsis_gcc.h ****   return(result);
 278:Drivers/CMSIS/Include/cmsis_gcc.h **** }
 279:Drivers/CMSIS/Include/cmsis_gcc.h **** 
 280:Drivers/CMSIS/Include/cmsis_gcc.h **** 
 281:Drivers/CMSIS/Include/cmsis_gcc.h **** /**
 282:Drivers/CMSIS/Include/cmsis_gcc.h ****   \brief   Get APSR Register
 283:Drivers/CMSIS/Include/cmsis_gcc.h ****   \details Returns the content of the APSR Register.
 284:Drivers/CMSIS/Include/cmsis_gcc.h ****   \return               APSR Register value
 285:Drivers/CMSIS/Include/cmsis_gcc.h ****  */
 286:Drivers/CMSIS/Include/cmsis_gcc.h **** __STATIC_FORCEINLINE uint32_t __get_APSR(void)
 287:Drivers/CMSIS/Include/cmsis_gcc.h **** {
 288:Drivers/CMSIS/Include/cmsis_gcc.h ****   uint32_t result;
 289:Drivers/CMSIS/Include/cmsis_gcc.h **** 
 290:Drivers/CMSIS/Include/cmsis_gcc.h ****   __ASM volatile ("MRS %0, apsr" : "=r" (result) );
 291:Drivers/CMSIS/Include/cmsis_gcc.h ****   return(result);
 292:Drivers/CMSIS/Include/cmsis_gcc.h **** }
 293:Drivers/CMSIS/Include/cmsis_gcc.h **** 
 294:Drivers/CMSIS/Include/cmsis_gcc.h **** 
 295:Drivers/CMSIS/Include/cmsis_gcc.h **** /**
 296:Drivers/CMSIS/Include/cmsis_gcc.h ****   \brief   Get xPSR Register
 297:Drivers/CMSIS/Include/cmsis_gcc.h ****   \details Returns the content of the xPSR Register.
 298:Drivers/CMSIS/Include/cmsis_gcc.h ****   \return               xPSR Register value
 299:Drivers/CMSIS/Include/cmsis_gcc.h ****  */
 300:Drivers/CMSIS/Include/cmsis_gcc.h **** __STATIC_FORCEINLINE uint32_t __get_xPSR(void)
 301:Drivers/CMSIS/Include/cmsis_gcc.h **** {
 302:Drivers/CMSIS/Include/cmsis_gcc.h ****   uint32_t result;
 303:Drivers/CMSIS/Include/cmsis_gcc.h **** 
 304:Drivers/CMSIS/Include/cmsis_gcc.h ****   __ASM volatile ("MRS %0, xpsr" : "=r" (result) );
 305:Drivers/CMSIS/Include/cmsis_gcc.h ****   return(result);
 306:Drivers/CMSIS/Include/cmsis_gcc.h **** }
 307:Drivers/CMSIS/Include/cmsis_gcc.h **** 
 308:Drivers/CMSIS/Include/cmsis_gcc.h **** 
 309:Drivers/CMSIS/Include/cmsis_gcc.h **** /**
 310:Drivers/CMSIS/Include/cmsis_gcc.h ****   \brief   Get Process Stack Pointer
 311:Drivers/CMSIS/Include/cmsis_gcc.h ****   \details Returns the current value of the Process Stack Pointer (PSP).
ARM GAS  C:\Users\W_LINU~1\AppData\Local\Temp\ccQ78mwl.s 			page 39


 312:Drivers/CMSIS/Include/cmsis_gcc.h ****   \return               PSP Register value
 313:Drivers/CMSIS/Include/cmsis_gcc.h ****  */
 314:Drivers/CMSIS/Include/cmsis_gcc.h **** __STATIC_FORCEINLINE uint32_t __get_PSP(void)
 315:Drivers/CMSIS/Include/cmsis_gcc.h **** {
 316:Drivers/CMSIS/Include/cmsis_gcc.h ****   uint32_t result;
 317:Drivers/CMSIS/Include/cmsis_gcc.h **** 
 318:Drivers/CMSIS/Include/cmsis_gcc.h ****   __ASM volatile ("MRS %0, psp"  : "=r" (result) );
 319:Drivers/CMSIS/Include/cmsis_gcc.h ****   return(result);
 320:Drivers/CMSIS/Include/cmsis_gcc.h **** }
 321:Drivers/CMSIS/Include/cmsis_gcc.h **** 
 322:Drivers/CMSIS/Include/cmsis_gcc.h **** 
 323:Drivers/CMSIS/Include/cmsis_gcc.h **** #if (defined (__ARM_FEATURE_CMSE ) && (__ARM_FEATURE_CMSE == 3))
 324:Drivers/CMSIS/Include/cmsis_gcc.h **** /**
 325:Drivers/CMSIS/Include/cmsis_gcc.h ****   \brief   Get Process Stack Pointer (non-secure)
 326:Drivers/CMSIS/Include/cmsis_gcc.h ****   \details Returns the current value of the non-secure Process Stack Pointer (PSP) when in secure s
 327:Drivers/CMSIS/Include/cmsis_gcc.h ****   \return               PSP Register value
 328:Drivers/CMSIS/Include/cmsis_gcc.h ****  */
 329:Drivers/CMSIS/Include/cmsis_gcc.h **** __STATIC_FORCEINLINE uint32_t __TZ_get_PSP_NS(void)
 330:Drivers/CMSIS/Include/cmsis_gcc.h **** {
 331:Drivers/CMSIS/Include/cmsis_gcc.h ****   uint32_t result;
 332:Drivers/CMSIS/Include/cmsis_gcc.h **** 
 333:Drivers/CMSIS/Include/cmsis_gcc.h ****   __ASM volatile ("MRS %0, psp_ns"  : "=r" (result) );
 334:Drivers/CMSIS/Include/cmsis_gcc.h ****   return(result);
 335:Drivers/CMSIS/Include/cmsis_gcc.h **** }
 336:Drivers/CMSIS/Include/cmsis_gcc.h **** #endif
 337:Drivers/CMSIS/Include/cmsis_gcc.h **** 
 338:Drivers/CMSIS/Include/cmsis_gcc.h **** 
 339:Drivers/CMSIS/Include/cmsis_gcc.h **** /**
 340:Drivers/CMSIS/Include/cmsis_gcc.h ****   \brief   Set Process Stack Pointer
 341:Drivers/CMSIS/Include/cmsis_gcc.h ****   \details Assigns the given value to the Process Stack Pointer (PSP).
 342:Drivers/CMSIS/Include/cmsis_gcc.h ****   \param [in]    topOfProcStack  Process Stack Pointer value to set
 343:Drivers/CMSIS/Include/cmsis_gcc.h ****  */
 344:Drivers/CMSIS/Include/cmsis_gcc.h **** __STATIC_FORCEINLINE void __set_PSP(uint32_t topOfProcStack)
 345:Drivers/CMSIS/Include/cmsis_gcc.h **** {
 346:Drivers/CMSIS/Include/cmsis_gcc.h ****   __ASM volatile ("MSR psp, %0" : : "r" (topOfProcStack) : );
 347:Drivers/CMSIS/Include/cmsis_gcc.h **** }
 348:Drivers/CMSIS/Include/cmsis_gcc.h **** 
 349:Drivers/CMSIS/Include/cmsis_gcc.h **** 
 350:Drivers/CMSIS/Include/cmsis_gcc.h **** #if (defined (__ARM_FEATURE_CMSE ) && (__ARM_FEATURE_CMSE == 3))
 351:Drivers/CMSIS/Include/cmsis_gcc.h **** /**
 352:Drivers/CMSIS/Include/cmsis_gcc.h ****   \brief   Set Process Stack Pointer (non-secure)
 353:Drivers/CMSIS/Include/cmsis_gcc.h ****   \details Assigns the given value to the non-secure Process Stack Pointer (PSP) when in secure sta
 354:Drivers/CMSIS/Include/cmsis_gcc.h ****   \param [in]    topOfProcStack  Process Stack Pointer value to set
 355:Drivers/CMSIS/Include/cmsis_gcc.h ****  */
 356:Drivers/CMSIS/Include/cmsis_gcc.h **** __STATIC_FORCEINLINE void __TZ_set_PSP_NS(uint32_t topOfProcStack)
 357:Drivers/CMSIS/Include/cmsis_gcc.h **** {
 358:Drivers/CMSIS/Include/cmsis_gcc.h ****   __ASM volatile ("MSR psp_ns, %0" : : "r" (topOfProcStack) : );
 359:Drivers/CMSIS/Include/cmsis_gcc.h **** }
 360:Drivers/CMSIS/Include/cmsis_gcc.h **** #endif
 361:Drivers/CMSIS/Include/cmsis_gcc.h **** 
 362:Drivers/CMSIS/Include/cmsis_gcc.h **** 
 363:Drivers/CMSIS/Include/cmsis_gcc.h **** /**
 364:Drivers/CMSIS/Include/cmsis_gcc.h ****   \brief   Get Main Stack Pointer
 365:Drivers/CMSIS/Include/cmsis_gcc.h ****   \details Returns the current value of the Main Stack Pointer (MSP).
 366:Drivers/CMSIS/Include/cmsis_gcc.h ****   \return               MSP Register value
 367:Drivers/CMSIS/Include/cmsis_gcc.h ****  */
 368:Drivers/CMSIS/Include/cmsis_gcc.h **** __STATIC_FORCEINLINE uint32_t __get_MSP(void)
ARM GAS  C:\Users\W_LINU~1\AppData\Local\Temp\ccQ78mwl.s 			page 40


 369:Drivers/CMSIS/Include/cmsis_gcc.h **** {
 370:Drivers/CMSIS/Include/cmsis_gcc.h ****   uint32_t result;
 371:Drivers/CMSIS/Include/cmsis_gcc.h **** 
 372:Drivers/CMSIS/Include/cmsis_gcc.h ****   __ASM volatile ("MRS %0, msp" : "=r" (result) );
 373:Drivers/CMSIS/Include/cmsis_gcc.h ****   return(result);
 374:Drivers/CMSIS/Include/cmsis_gcc.h **** }
 375:Drivers/CMSIS/Include/cmsis_gcc.h **** 
 376:Drivers/CMSIS/Include/cmsis_gcc.h **** 
 377:Drivers/CMSIS/Include/cmsis_gcc.h **** #if (defined (__ARM_FEATURE_CMSE ) && (__ARM_FEATURE_CMSE == 3))
 378:Drivers/CMSIS/Include/cmsis_gcc.h **** /**
 379:Drivers/CMSIS/Include/cmsis_gcc.h ****   \brief   Get Main Stack Pointer (non-secure)
 380:Drivers/CMSIS/Include/cmsis_gcc.h ****   \details Returns the current value of the non-secure Main Stack Pointer (MSP) when in secure stat
 381:Drivers/CMSIS/Include/cmsis_gcc.h ****   \return               MSP Register value
 382:Drivers/CMSIS/Include/cmsis_gcc.h ****  */
 383:Drivers/CMSIS/Include/cmsis_gcc.h **** __STATIC_FORCEINLINE uint32_t __TZ_get_MSP_NS(void)
 384:Drivers/CMSIS/Include/cmsis_gcc.h **** {
 385:Drivers/CMSIS/Include/cmsis_gcc.h ****   uint32_t result;
 386:Drivers/CMSIS/Include/cmsis_gcc.h **** 
 387:Drivers/CMSIS/Include/cmsis_gcc.h ****   __ASM volatile ("MRS %0, msp_ns" : "=r" (result) );
 388:Drivers/CMSIS/Include/cmsis_gcc.h ****   return(result);
 389:Drivers/CMSIS/Include/cmsis_gcc.h **** }
 390:Drivers/CMSIS/Include/cmsis_gcc.h **** #endif
 391:Drivers/CMSIS/Include/cmsis_gcc.h **** 
 392:Drivers/CMSIS/Include/cmsis_gcc.h **** 
 393:Drivers/CMSIS/Include/cmsis_gcc.h **** /**
 394:Drivers/CMSIS/Include/cmsis_gcc.h ****   \brief   Set Main Stack Pointer
 395:Drivers/CMSIS/Include/cmsis_gcc.h ****   \details Assigns the given value to the Main Stack Pointer (MSP).
 396:Drivers/CMSIS/Include/cmsis_gcc.h ****   \param [in]    topOfMainStack  Main Stack Pointer value to set
 397:Drivers/CMSIS/Include/cmsis_gcc.h ****  */
 398:Drivers/CMSIS/Include/cmsis_gcc.h **** __STATIC_FORCEINLINE void __set_MSP(uint32_t topOfMainStack)
 399:Drivers/CMSIS/Include/cmsis_gcc.h **** {
 400:Drivers/CMSIS/Include/cmsis_gcc.h ****   __ASM volatile ("MSR msp, %0" : : "r" (topOfMainStack) : );
 401:Drivers/CMSIS/Include/cmsis_gcc.h **** }
 402:Drivers/CMSIS/Include/cmsis_gcc.h **** 
 403:Drivers/CMSIS/Include/cmsis_gcc.h **** 
 404:Drivers/CMSIS/Include/cmsis_gcc.h **** #if (defined (__ARM_FEATURE_CMSE ) && (__ARM_FEATURE_CMSE == 3))
 405:Drivers/CMSIS/Include/cmsis_gcc.h **** /**
 406:Drivers/CMSIS/Include/cmsis_gcc.h ****   \brief   Set Main Stack Pointer (non-secure)
 407:Drivers/CMSIS/Include/cmsis_gcc.h ****   \details Assigns the given value to the non-secure Main Stack Pointer (MSP) when in secure state.
 408:Drivers/CMSIS/Include/cmsis_gcc.h ****   \param [in]    topOfMainStack  Main Stack Pointer value to set
 409:Drivers/CMSIS/Include/cmsis_gcc.h ****  */
 410:Drivers/CMSIS/Include/cmsis_gcc.h **** __STATIC_FORCEINLINE void __TZ_set_MSP_NS(uint32_t topOfMainStack)
 411:Drivers/CMSIS/Include/cmsis_gcc.h **** {
 412:Drivers/CMSIS/Include/cmsis_gcc.h ****   __ASM volatile ("MSR msp_ns, %0" : : "r" (topOfMainStack) : );
 413:Drivers/CMSIS/Include/cmsis_gcc.h **** }
 414:Drivers/CMSIS/Include/cmsis_gcc.h **** #endif
 415:Drivers/CMSIS/Include/cmsis_gcc.h **** 
 416:Drivers/CMSIS/Include/cmsis_gcc.h **** 
 417:Drivers/CMSIS/Include/cmsis_gcc.h **** #if (defined (__ARM_FEATURE_CMSE ) && (__ARM_FEATURE_CMSE == 3))
 418:Drivers/CMSIS/Include/cmsis_gcc.h **** /**
 419:Drivers/CMSIS/Include/cmsis_gcc.h ****   \brief   Get Stack Pointer (non-secure)
 420:Drivers/CMSIS/Include/cmsis_gcc.h ****   \details Returns the current value of the non-secure Stack Pointer (SP) when in secure state.
 421:Drivers/CMSIS/Include/cmsis_gcc.h ****   \return               SP Register value
 422:Drivers/CMSIS/Include/cmsis_gcc.h ****  */
 423:Drivers/CMSIS/Include/cmsis_gcc.h **** __STATIC_FORCEINLINE uint32_t __TZ_get_SP_NS(void)
 424:Drivers/CMSIS/Include/cmsis_gcc.h **** {
 425:Drivers/CMSIS/Include/cmsis_gcc.h ****   uint32_t result;
ARM GAS  C:\Users\W_LINU~1\AppData\Local\Temp\ccQ78mwl.s 			page 41


 426:Drivers/CMSIS/Include/cmsis_gcc.h **** 
 427:Drivers/CMSIS/Include/cmsis_gcc.h ****   __ASM volatile ("MRS %0, sp_ns" : "=r" (result) );
 428:Drivers/CMSIS/Include/cmsis_gcc.h ****   return(result);
 429:Drivers/CMSIS/Include/cmsis_gcc.h **** }
 430:Drivers/CMSIS/Include/cmsis_gcc.h **** 
 431:Drivers/CMSIS/Include/cmsis_gcc.h **** 
 432:Drivers/CMSIS/Include/cmsis_gcc.h **** /**
 433:Drivers/CMSIS/Include/cmsis_gcc.h ****   \brief   Set Stack Pointer (non-secure)
 434:Drivers/CMSIS/Include/cmsis_gcc.h ****   \details Assigns the given value to the non-secure Stack Pointer (SP) when in secure state.
 435:Drivers/CMSIS/Include/cmsis_gcc.h ****   \param [in]    topOfStack  Stack Pointer value to set
 436:Drivers/CMSIS/Include/cmsis_gcc.h ****  */
 437:Drivers/CMSIS/Include/cmsis_gcc.h **** __STATIC_FORCEINLINE void __TZ_set_SP_NS(uint32_t topOfStack)
 438:Drivers/CMSIS/Include/cmsis_gcc.h **** {
 439:Drivers/CMSIS/Include/cmsis_gcc.h ****   __ASM volatile ("MSR sp_ns, %0" : : "r" (topOfStack) : );
 440:Drivers/CMSIS/Include/cmsis_gcc.h **** }
 441:Drivers/CMSIS/Include/cmsis_gcc.h **** #endif
 442:Drivers/CMSIS/Include/cmsis_gcc.h **** 
 443:Drivers/CMSIS/Include/cmsis_gcc.h **** 
 444:Drivers/CMSIS/Include/cmsis_gcc.h **** /**
 445:Drivers/CMSIS/Include/cmsis_gcc.h ****   \brief   Get Priority Mask
 446:Drivers/CMSIS/Include/cmsis_gcc.h ****   \details Returns the current state of the priority mask bit from the Priority Mask Register.
 447:Drivers/CMSIS/Include/cmsis_gcc.h ****   \return               Priority Mask value
 448:Drivers/CMSIS/Include/cmsis_gcc.h ****  */
 449:Drivers/CMSIS/Include/cmsis_gcc.h **** __STATIC_FORCEINLINE uint32_t __get_PRIMASK(void)
 659              		.loc 2 449 31 discriminator 2 view .LVU160
 660              	.LBB32:
 450:Drivers/CMSIS/Include/cmsis_gcc.h **** {
 451:Drivers/CMSIS/Include/cmsis_gcc.h ****   uint32_t result;
 661              		.loc 2 451 3 discriminator 2 view .LVU161
 452:Drivers/CMSIS/Include/cmsis_gcc.h **** 
 453:Drivers/CMSIS/Include/cmsis_gcc.h ****   __ASM volatile ("MRS %0, primask" : "=r" (result) :: "memory");
 662              		.loc 2 453 3 discriminator 2 view .LVU162
 663              		.syntax divided
 664              	@ 453 "Drivers/CMSIS/Include/cmsis_gcc.h" 1
 665 0010 EFF3108C 		MRS ip, primask
 666              	@ 0 "" 2
 667              	.LVL51:
 454:Drivers/CMSIS/Include/cmsis_gcc.h ****   return(result);
 668              		.loc 2 454 3 discriminator 2 view .LVU163
 669              		.loc 2 454 3 is_stmt 0 discriminator 2 view .LVU164
 670              		.thumb
 671              		.syntax unified
 672              	.LBE32:
 673              	.LBE31:
 486:Drivers/STM32G0xx_HAL_Driver/Src/stm32g0xx_hal_uart_ex.c **** 
 674              		.loc 1 486 3 is_stmt 1 discriminator 2 view .LVU165
 675              	.LBB33:
 676              	.LBI33:
 455:Drivers/CMSIS/Include/cmsis_gcc.h **** }
 456:Drivers/CMSIS/Include/cmsis_gcc.h **** 
 457:Drivers/CMSIS/Include/cmsis_gcc.h **** 
 458:Drivers/CMSIS/Include/cmsis_gcc.h **** #if (defined (__ARM_FEATURE_CMSE ) && (__ARM_FEATURE_CMSE == 3))
 459:Drivers/CMSIS/Include/cmsis_gcc.h **** /**
 460:Drivers/CMSIS/Include/cmsis_gcc.h ****   \brief   Get Priority Mask (non-secure)
 461:Drivers/CMSIS/Include/cmsis_gcc.h ****   \details Returns the current state of the non-secure priority mask bit from the Priority Mask Reg
 462:Drivers/CMSIS/Include/cmsis_gcc.h ****   \return               Priority Mask value
 463:Drivers/CMSIS/Include/cmsis_gcc.h ****  */
ARM GAS  C:\Users\W_LINU~1\AppData\Local\Temp\ccQ78mwl.s 			page 42


 464:Drivers/CMSIS/Include/cmsis_gcc.h **** __STATIC_FORCEINLINE uint32_t __TZ_get_PRIMASK_NS(void)
 465:Drivers/CMSIS/Include/cmsis_gcc.h **** {
 466:Drivers/CMSIS/Include/cmsis_gcc.h ****   uint32_t result;
 467:Drivers/CMSIS/Include/cmsis_gcc.h **** 
 468:Drivers/CMSIS/Include/cmsis_gcc.h ****   __ASM volatile ("MRS %0, primask_ns" : "=r" (result) :: "memory");
 469:Drivers/CMSIS/Include/cmsis_gcc.h ****   return(result);
 470:Drivers/CMSIS/Include/cmsis_gcc.h **** }
 471:Drivers/CMSIS/Include/cmsis_gcc.h **** #endif
 472:Drivers/CMSIS/Include/cmsis_gcc.h **** 
 473:Drivers/CMSIS/Include/cmsis_gcc.h **** 
 474:Drivers/CMSIS/Include/cmsis_gcc.h **** /**
 475:Drivers/CMSIS/Include/cmsis_gcc.h ****   \brief   Set Priority Mask
 476:Drivers/CMSIS/Include/cmsis_gcc.h ****   \details Assigns the given value to the Priority Mask Register.
 477:Drivers/CMSIS/Include/cmsis_gcc.h ****   \param [in]    priMask  Priority Mask
 478:Drivers/CMSIS/Include/cmsis_gcc.h ****  */
 479:Drivers/CMSIS/Include/cmsis_gcc.h **** __STATIC_FORCEINLINE void __set_PRIMASK(uint32_t priMask)
 677              		.loc 2 479 27 discriminator 2 view .LVU166
 678              	.LBB34:
 480:Drivers/CMSIS/Include/cmsis_gcc.h **** {
 481:Drivers/CMSIS/Include/cmsis_gcc.h ****   __ASM volatile ("MSR primask, %0" : : "r" (priMask) : "memory");
 679              		.loc 2 481 3 discriminator 2 view .LVU167
 680              		.syntax divided
 681              	@ 481 "Drivers/CMSIS/Include/cmsis_gcc.h" 1
 682 0014 83F31088 		MSR primask, r3
 683              	@ 0 "" 2
 684              	.LVL52:
 685              		.loc 2 481 3 is_stmt 0 discriminator 2 view .LVU168
 686              		.thumb
 687              		.syntax unified
 688              	.LBE34:
 689              	.LBE33:
 486:Drivers/STM32G0xx_HAL_Driver/Src/stm32g0xx_hal_uart_ex.c **** 
 690              		.loc 1 486 3 is_stmt 1 discriminator 2 view .LVU169
 691 0018 0168     		ldr	r1, [r0]
 692 001a 0B68     		ldr	r3, [r1]
 693 001c 0224     		movs	r4, #2
 694 001e 2343     		orrs	r3, r4
 695 0020 0B60     		str	r3, [r1]
 486:Drivers/STM32G0xx_HAL_Driver/Src/stm32g0xx_hal_uart_ex.c **** 
 696              		.loc 1 486 3 discriminator 2 view .LVU170
 697              	.LVL53:
 698              	.LBB35:
 699              	.LBI35:
 479:Drivers/CMSIS/Include/cmsis_gcc.h **** {
 700              		.loc 2 479 27 discriminator 2 view .LVU171
 701              	.LBB36:
 702              		.loc 2 481 3 discriminator 2 view .LVU172
 703              		.syntax divided
 704              	@ 481 "Drivers/CMSIS/Include/cmsis_gcc.h" 1
 705 0022 8CF31088 		MSR primask, ip
 706              	@ 0 "" 2
 707              	.LVL54:
 708              		.loc 2 481 3 is_stmt 0 discriminator 2 view .LVU173
 709              		.thumb
 710              		.syntax unified
 711              	.LBE36:
 712              	.LBE35:
ARM GAS  C:\Users\W_LINU~1\AppData\Local\Temp\ccQ78mwl.s 			page 43


 713              	.LBE30:
 486:Drivers/STM32G0xx_HAL_Driver/Src/stm32g0xx_hal_uart_ex.c **** 
 714              		.loc 1 486 3 is_stmt 1 discriminator 2 view .LVU174
 489:Drivers/STM32G0xx_HAL_Driver/Src/stm32g0xx_hal_uart_ex.c **** 
 715              		.loc 1 489 3 discriminator 2 view .LVU175
 489:Drivers/STM32G0xx_HAL_Driver/Src/stm32g0xx_hal_uart_ex.c **** 
 716              		.loc 1 489 3 discriminator 2 view .LVU176
 717 0026 0023     		movs	r3, #0
 718 0028 8354     		strb	r3, [r0, r2]
 489:Drivers/STM32G0xx_HAL_Driver/Src/stm32g0xx_hal_uart_ex.c **** 
 719              		.loc 1 489 3 discriminator 2 view .LVU177
 491:Drivers/STM32G0xx_HAL_Driver/Src/stm32g0xx_hal_uart_ex.c **** }
 720              		.loc 1 491 3 discriminator 2 view .LVU178
 491:Drivers/STM32G0xx_HAL_Driver/Src/stm32g0xx_hal_uart_ex.c **** }
 721              		.loc 1 491 10 is_stmt 0 discriminator 2 view .LVU179
 722 002a 0020     		movs	r0, #0
 723              	.LVL55:
 724              	.L32:
 492:Drivers/STM32G0xx_HAL_Driver/Src/stm32g0xx_hal_uart_ex.c **** 
 725              		.loc 1 492 1 view .LVU180
 726              		@ sp needed
 727 002c 10BD     		pop	{r4, pc}
 728              	.LVL56:
 729              	.L33:
 483:Drivers/STM32G0xx_HAL_Driver/Src/stm32g0xx_hal_uart_ex.c **** 
 730              		.loc 1 483 3 view .LVU181
 731 002e 0220     		movs	r0, #2
 732              	.LVL57:
 483:Drivers/STM32G0xx_HAL_Driver/Src/stm32g0xx_hal_uart_ex.c **** 
 733              		.loc 1 483 3 view .LVU182
 734 0030 FCE7     		b	.L32
 735              		.cfi_endproc
 736              	.LFE296:
 738              		.section	.text.HAL_UARTEx_DisableStopMode,"ax",%progbits
 739              		.align	1
 740              		.global	HAL_UARTEx_DisableStopMode
 741              		.syntax unified
 742              		.code	16
 743              		.thumb_func
 745              	HAL_UARTEx_DisableStopMode:
 746              	.LVL58:
 747              	.LFB297:
 500:Drivers/STM32G0xx_HAL_Driver/Src/stm32g0xx_hal_uart_ex.c ****   /* Process Locked */
 748              		.loc 1 500 1 is_stmt 1 view -0
 749              		.cfi_startproc
 750              		@ args = 0, pretend = 0, frame = 0
 751              		@ frame_needed = 0, uses_anonymous_args = 0
 500:Drivers/STM32G0xx_HAL_Driver/Src/stm32g0xx_hal_uart_ex.c ****   /* Process Locked */
 752              		.loc 1 500 1 is_stmt 0 view .LVU184
 753 0000 10B5     		push	{r4, lr}
 754              	.LCFI7:
 755              		.cfi_def_cfa_offset 8
 756              		.cfi_offset 4, -8
 757              		.cfi_offset 14, -4
 502:Drivers/STM32G0xx_HAL_Driver/Src/stm32g0xx_hal_uart_ex.c **** 
 758              		.loc 1 502 3 is_stmt 1 view .LVU185
 502:Drivers/STM32G0xx_HAL_Driver/Src/stm32g0xx_hal_uart_ex.c **** 
ARM GAS  C:\Users\W_LINU~1\AppData\Local\Temp\ccQ78mwl.s 			page 44


 759              		.loc 1 502 3 view .LVU186
 760 0002 8423     		movs	r3, #132
 761 0004 C35C     		ldrb	r3, [r0, r3]
 762 0006 012B     		cmp	r3, #1
 763 0008 11D0     		beq	.L36
 502:Drivers/STM32G0xx_HAL_Driver/Src/stm32g0xx_hal_uart_ex.c **** 
 764              		.loc 1 502 3 discriminator 2 view .LVU187
 765 000a 8422     		movs	r2, #132
 766 000c 0123     		movs	r3, #1
 767 000e 8354     		strb	r3, [r0, r2]
 502:Drivers/STM32G0xx_HAL_Driver/Src/stm32g0xx_hal_uart_ex.c **** 
 768              		.loc 1 502 3 discriminator 2 view .LVU188
 505:Drivers/STM32G0xx_HAL_Driver/Src/stm32g0xx_hal_uart_ex.c **** 
 769              		.loc 1 505 3 discriminator 2 view .LVU189
 770              	.LBB37:
 505:Drivers/STM32G0xx_HAL_Driver/Src/stm32g0xx_hal_uart_ex.c **** 
 771              		.loc 1 505 3 discriminator 2 view .LVU190
 505:Drivers/STM32G0xx_HAL_Driver/Src/stm32g0xx_hal_uart_ex.c **** 
 772              		.loc 1 505 3 discriminator 2 view .LVU191
 773              	.LBB38:
 774              	.LBI38:
 449:Drivers/CMSIS/Include/cmsis_gcc.h **** {
 775              		.loc 2 449 31 discriminator 2 view .LVU192
 776              	.LBB39:
 451:Drivers/CMSIS/Include/cmsis_gcc.h **** 
 777              		.loc 2 451 3 discriminator 2 view .LVU193
 453:Drivers/CMSIS/Include/cmsis_gcc.h ****   return(result);
 778              		.loc 2 453 3 discriminator 2 view .LVU194
 779              		.syntax divided
 780              	@ 453 "Drivers/CMSIS/Include/cmsis_gcc.h" 1
 781 0010 EFF3108C 		MRS ip, primask
 782              	@ 0 "" 2
 783              	.LVL59:
 454:Drivers/CMSIS/Include/cmsis_gcc.h **** }
 784              		.loc 2 454 3 discriminator 2 view .LVU195
 454:Drivers/CMSIS/Include/cmsis_gcc.h **** }
 785              		.loc 2 454 3 is_stmt 0 discriminator 2 view .LVU196
 786              		.thumb
 787              		.syntax unified
 788              	.LBE39:
 789              	.LBE38:
 505:Drivers/STM32G0xx_HAL_Driver/Src/stm32g0xx_hal_uart_ex.c **** 
 790              		.loc 1 505 3 is_stmt 1 discriminator 2 view .LVU197
 791              	.LBB40:
 792              	.LBI40:
 479:Drivers/CMSIS/Include/cmsis_gcc.h **** {
 793              		.loc 2 479 27 discriminator 2 view .LVU198
 794              	.LBB41:
 795              		.loc 2 481 3 discriminator 2 view .LVU199
 796              		.syntax divided
 797              	@ 481 "Drivers/CMSIS/Include/cmsis_gcc.h" 1
 798 0014 83F31088 		MSR primask, r3
 799              	@ 0 "" 2
 800              	.LVL60:
 801              		.loc 2 481 3 is_stmt 0 discriminator 2 view .LVU200
 802              		.thumb
 803              		.syntax unified
ARM GAS  C:\Users\W_LINU~1\AppData\Local\Temp\ccQ78mwl.s 			page 45


 804              	.LBE41:
 805              	.LBE40:
 505:Drivers/STM32G0xx_HAL_Driver/Src/stm32g0xx_hal_uart_ex.c **** 
 806              		.loc 1 505 3 is_stmt 1 discriminator 2 view .LVU201
 807 0018 0168     		ldr	r1, [r0]
 808 001a 0B68     		ldr	r3, [r1]
 809 001c 0224     		movs	r4, #2
 810 001e A343     		bics	r3, r4
 811 0020 0B60     		str	r3, [r1]
 505:Drivers/STM32G0xx_HAL_Driver/Src/stm32g0xx_hal_uart_ex.c **** 
 812              		.loc 1 505 3 discriminator 2 view .LVU202
 813              	.LVL61:
 814              	.LBB42:
 815              	.LBI42:
 479:Drivers/CMSIS/Include/cmsis_gcc.h **** {
 816              		.loc 2 479 27 discriminator 2 view .LVU203
 817              	.LBB43:
 818              		.loc 2 481 3 discriminator 2 view .LVU204
 819              		.syntax divided
 820              	@ 481 "Drivers/CMSIS/Include/cmsis_gcc.h" 1
 821 0022 8CF31088 		MSR primask, ip
 822              	@ 0 "" 2
 823              	.LVL62:
 824              		.loc 2 481 3 is_stmt 0 discriminator 2 view .LVU205
 825              		.thumb
 826              		.syntax unified
 827              	.LBE43:
 828              	.LBE42:
 829              	.LBE37:
 505:Drivers/STM32G0xx_HAL_Driver/Src/stm32g0xx_hal_uart_ex.c **** 
 830              		.loc 1 505 3 is_stmt 1 discriminator 2 view .LVU206
 508:Drivers/STM32G0xx_HAL_Driver/Src/stm32g0xx_hal_uart_ex.c **** 
 831              		.loc 1 508 3 discriminator 2 view .LVU207
 508:Drivers/STM32G0xx_HAL_Driver/Src/stm32g0xx_hal_uart_ex.c **** 
 832              		.loc 1 508 3 discriminator 2 view .LVU208
 833 0026 0023     		movs	r3, #0
 834 0028 8354     		strb	r3, [r0, r2]
 508:Drivers/STM32G0xx_HAL_Driver/Src/stm32g0xx_hal_uart_ex.c **** 
 835              		.loc 1 508 3 discriminator 2 view .LVU209
 510:Drivers/STM32G0xx_HAL_Driver/Src/stm32g0xx_hal_uart_ex.c **** }
 836              		.loc 1 510 3 discriminator 2 view .LVU210
 510:Drivers/STM32G0xx_HAL_Driver/Src/stm32g0xx_hal_uart_ex.c **** }
 837              		.loc 1 510 10 is_stmt 0 discriminator 2 view .LVU211
 838 002a 0020     		movs	r0, #0
 839              	.LVL63:
 840              	.L35:
 511:Drivers/STM32G0xx_HAL_Driver/Src/stm32g0xx_hal_uart_ex.c **** 
 841              		.loc 1 511 1 view .LVU212
 842              		@ sp needed
 843 002c 10BD     		pop	{r4, pc}
 844              	.LVL64:
 845              	.L36:
 502:Drivers/STM32G0xx_HAL_Driver/Src/stm32g0xx_hal_uart_ex.c **** 
 846              		.loc 1 502 3 view .LVU213
 847 002e 0220     		movs	r0, #2
 848              	.LVL65:
 502:Drivers/STM32G0xx_HAL_Driver/Src/stm32g0xx_hal_uart_ex.c **** 
ARM GAS  C:\Users\W_LINU~1\AppData\Local\Temp\ccQ78mwl.s 			page 46


 849              		.loc 1 502 3 view .LVU214
 850 0030 FCE7     		b	.L35
 851              		.cfi_endproc
 852              	.LFE297:
 854              		.section	.text.HAL_UARTEx_EnableFifoMode,"ax",%progbits
 855              		.align	1
 856              		.global	HAL_UARTEx_EnableFifoMode
 857              		.syntax unified
 858              		.code	16
 859              		.thumb_func
 861              	HAL_UARTEx_EnableFifoMode:
 862              	.LVL66:
 863              	.LFB298:
 519:Drivers/STM32G0xx_HAL_Driver/Src/stm32g0xx_hal_uart_ex.c ****   uint32_t tmpcr1;
 864              		.loc 1 519 1 is_stmt 1 view -0
 865              		.cfi_startproc
 866              		@ args = 0, pretend = 0, frame = 0
 867              		@ frame_needed = 0, uses_anonymous_args = 0
 519:Drivers/STM32G0xx_HAL_Driver/Src/stm32g0xx_hal_uart_ex.c ****   uint32_t tmpcr1;
 868              		.loc 1 519 1 is_stmt 0 view .LVU216
 869 0000 70B5     		push	{r4, r5, r6, lr}
 870              	.LCFI8:
 871              		.cfi_def_cfa_offset 16
 872              		.cfi_offset 4, -16
 873              		.cfi_offset 5, -12
 874              		.cfi_offset 6, -8
 875              		.cfi_offset 14, -4
 876 0002 0400     		movs	r4, r0
 520:Drivers/STM32G0xx_HAL_Driver/Src/stm32g0xx_hal_uart_ex.c **** 
 877              		.loc 1 520 3 is_stmt 1 view .LVU217
 523:Drivers/STM32G0xx_HAL_Driver/Src/stm32g0xx_hal_uart_ex.c **** 
 878              		.loc 1 523 3 view .LVU218
 526:Drivers/STM32G0xx_HAL_Driver/Src/stm32g0xx_hal_uart_ex.c **** 
 879              		.loc 1 526 3 view .LVU219
 526:Drivers/STM32G0xx_HAL_Driver/Src/stm32g0xx_hal_uart_ex.c **** 
 880              		.loc 1 526 3 view .LVU220
 881 0004 8423     		movs	r3, #132
 882 0006 C35C     		ldrb	r3, [r0, r3]
 883 0008 012B     		cmp	r3, #1
 884 000a 19D0     		beq	.L39
 526:Drivers/STM32G0xx_HAL_Driver/Src/stm32g0xx_hal_uart_ex.c **** 
 885              		.loc 1 526 3 discriminator 2 view .LVU221
 886 000c 8425     		movs	r5, #132
 887 000e 0120     		movs	r0, #1
 888              	.LVL67:
 526:Drivers/STM32G0xx_HAL_Driver/Src/stm32g0xx_hal_uart_ex.c **** 
 889              		.loc 1 526 3 is_stmt 0 discriminator 2 view .LVU222
 890 0010 6055     		strb	r0, [r4, r5]
 526:Drivers/STM32G0xx_HAL_Driver/Src/stm32g0xx_hal_uart_ex.c **** 
 891              		.loc 1 526 3 is_stmt 1 discriminator 2 view .LVU223
 528:Drivers/STM32G0xx_HAL_Driver/Src/stm32g0xx_hal_uart_ex.c **** 
 892              		.loc 1 528 3 discriminator 2 view .LVU224
 528:Drivers/STM32G0xx_HAL_Driver/Src/stm32g0xx_hal_uart_ex.c **** 
 893              		.loc 1 528 17 is_stmt 0 discriminator 2 view .LVU225
 894 0012 8826     		movs	r6, #136
 895 0014 2423     		movs	r3, #36
 896 0016 A351     		str	r3, [r4, r6]
ARM GAS  C:\Users\W_LINU~1\AppData\Local\Temp\ccQ78mwl.s 			page 47


 531:Drivers/STM32G0xx_HAL_Driver/Src/stm32g0xx_hal_uart_ex.c **** 
 897              		.loc 1 531 3 is_stmt 1 discriminator 2 view .LVU226
 531:Drivers/STM32G0xx_HAL_Driver/Src/stm32g0xx_hal_uart_ex.c **** 
 898              		.loc 1 531 12 is_stmt 0 discriminator 2 view .LVU227
 899 0018 2268     		ldr	r2, [r4]
 531:Drivers/STM32G0xx_HAL_Driver/Src/stm32g0xx_hal_uart_ex.c **** 
 900              		.loc 1 531 10 discriminator 2 view .LVU228
 901 001a 1368     		ldr	r3, [r2]
 902              	.LVL68:
 534:Drivers/STM32G0xx_HAL_Driver/Src/stm32g0xx_hal_uart_ex.c **** 
 903              		.loc 1 534 3 is_stmt 1 discriminator 2 view .LVU229
 904 001c 1168     		ldr	r1, [r2]
 905 001e 8143     		bics	r1, r0
 906 0020 1160     		str	r1, [r2]
 537:Drivers/STM32G0xx_HAL_Driver/Src/stm32g0xx_hal_uart_ex.c ****   huart->FifoMode = UART_FIFOMODE_ENABLE;
 907              		.loc 1 537 3 discriminator 2 view .LVU230
 908 0022 8022     		movs	r2, #128
 909 0024 9205     		lsls	r2, r2, #22
 910 0026 1343     		orrs	r3, r2
 911              	.LVL69:
 538:Drivers/STM32G0xx_HAL_Driver/Src/stm32g0xx_hal_uart_ex.c **** 
 912              		.loc 1 538 3 discriminator 2 view .LVU231
 538:Drivers/STM32G0xx_HAL_Driver/Src/stm32g0xx_hal_uart_ex.c **** 
 913              		.loc 1 538 19 is_stmt 0 discriminator 2 view .LVU232
 914 0028 6266     		str	r2, [r4, #100]
 541:Drivers/STM32G0xx_HAL_Driver/Src/stm32g0xx_hal_uart_ex.c **** 
 915              		.loc 1 541 3 is_stmt 1 discriminator 2 view .LVU233
 916 002a 2268     		ldr	r2, [r4]
 917 002c 1360     		str	r3, [r2]
 544:Drivers/STM32G0xx_HAL_Driver/Src/stm32g0xx_hal_uart_ex.c **** 
 918              		.loc 1 544 3 discriminator 2 view .LVU234
 919 002e 2000     		movs	r0, r4
 920 0030 FFF7FEFF 		bl	UARTEx_SetNbDataToProcess
 921              	.LVL70:
 546:Drivers/STM32G0xx_HAL_Driver/Src/stm32g0xx_hal_uart_ex.c **** 
 922              		.loc 1 546 3 discriminator 2 view .LVU235
 546:Drivers/STM32G0xx_HAL_Driver/Src/stm32g0xx_hal_uart_ex.c **** 
 923              		.loc 1 546 17 is_stmt 0 discriminator 2 view .LVU236
 924 0034 2023     		movs	r3, #32
 925 0036 A351     		str	r3, [r4, r6]
 549:Drivers/STM32G0xx_HAL_Driver/Src/stm32g0xx_hal_uart_ex.c **** 
 926              		.loc 1 549 3 is_stmt 1 discriminator 2 view .LVU237
 549:Drivers/STM32G0xx_HAL_Driver/Src/stm32g0xx_hal_uart_ex.c **** 
 927              		.loc 1 549 3 discriminator 2 view .LVU238
 928 0038 0023     		movs	r3, #0
 929 003a 6355     		strb	r3, [r4, r5]
 549:Drivers/STM32G0xx_HAL_Driver/Src/stm32g0xx_hal_uart_ex.c **** 
 930              		.loc 1 549 3 discriminator 2 view .LVU239
 551:Drivers/STM32G0xx_HAL_Driver/Src/stm32g0xx_hal_uart_ex.c **** }
 931              		.loc 1 551 3 discriminator 2 view .LVU240
 551:Drivers/STM32G0xx_HAL_Driver/Src/stm32g0xx_hal_uart_ex.c **** }
 932              		.loc 1 551 10 is_stmt 0 discriminator 2 view .LVU241
 933 003c 0020     		movs	r0, #0
 934              	.LVL71:
 935              	.L38:
 552:Drivers/STM32G0xx_HAL_Driver/Src/stm32g0xx_hal_uart_ex.c **** 
 936              		.loc 1 552 1 view .LVU242
ARM GAS  C:\Users\W_LINU~1\AppData\Local\Temp\ccQ78mwl.s 			page 48


 937              		@ sp needed
 938              	.LVL72:
 552:Drivers/STM32G0xx_HAL_Driver/Src/stm32g0xx_hal_uart_ex.c **** 
 939              		.loc 1 552 1 view .LVU243
 940 003e 70BD     		pop	{r4, r5, r6, pc}
 941              	.LVL73:
 942              	.L39:
 526:Drivers/STM32G0xx_HAL_Driver/Src/stm32g0xx_hal_uart_ex.c **** 
 943              		.loc 1 526 3 view .LVU244
 944 0040 0220     		movs	r0, #2
 945              	.LVL74:
 526:Drivers/STM32G0xx_HAL_Driver/Src/stm32g0xx_hal_uart_ex.c **** 
 946              		.loc 1 526 3 view .LVU245
 947 0042 FCE7     		b	.L38
 948              		.cfi_endproc
 949              	.LFE298:
 951              		.section	.text.HAL_UARTEx_DisableFifoMode,"ax",%progbits
 952              		.align	1
 953              		.global	HAL_UARTEx_DisableFifoMode
 954              		.syntax unified
 955              		.code	16
 956              		.thumb_func
 958              	HAL_UARTEx_DisableFifoMode:
 959              	.LVL75:
 960              	.LFB299:
 560:Drivers/STM32G0xx_HAL_Driver/Src/stm32g0xx_hal_uart_ex.c ****   uint32_t tmpcr1;
 961              		.loc 1 560 1 is_stmt 1 view -0
 962              		.cfi_startproc
 963              		@ args = 0, pretend = 0, frame = 0
 964              		@ frame_needed = 0, uses_anonymous_args = 0
 560:Drivers/STM32G0xx_HAL_Driver/Src/stm32g0xx_hal_uart_ex.c ****   uint32_t tmpcr1;
 965              		.loc 1 560 1 is_stmt 0 view .LVU247
 966 0000 70B5     		push	{r4, r5, r6, lr}
 967              	.LCFI9:
 968              		.cfi_def_cfa_offset 16
 969              		.cfi_offset 4, -16
 970              		.cfi_offset 5, -12
 971              		.cfi_offset 6, -8
 972              		.cfi_offset 14, -4
 561:Drivers/STM32G0xx_HAL_Driver/Src/stm32g0xx_hal_uart_ex.c **** 
 973              		.loc 1 561 3 is_stmt 1 view .LVU248
 564:Drivers/STM32G0xx_HAL_Driver/Src/stm32g0xx_hal_uart_ex.c **** 
 974              		.loc 1 564 3 view .LVU249
 567:Drivers/STM32G0xx_HAL_Driver/Src/stm32g0xx_hal_uart_ex.c **** 
 975              		.loc 1 567 3 view .LVU250
 567:Drivers/STM32G0xx_HAL_Driver/Src/stm32g0xx_hal_uart_ex.c **** 
 976              		.loc 1 567 3 view .LVU251
 977 0002 8423     		movs	r3, #132
 978 0004 C35C     		ldrb	r3, [r0, r3]
 979 0006 012B     		cmp	r3, #1
 980 0008 15D0     		beq	.L42
 567:Drivers/STM32G0xx_HAL_Driver/Src/stm32g0xx_hal_uart_ex.c **** 
 981              		.loc 1 567 3 discriminator 2 view .LVU252
 982 000a 8424     		movs	r4, #132
 983 000c 0126     		movs	r6, #1
 984 000e 0655     		strb	r6, [r0, r4]
 567:Drivers/STM32G0xx_HAL_Driver/Src/stm32g0xx_hal_uart_ex.c **** 
ARM GAS  C:\Users\W_LINU~1\AppData\Local\Temp\ccQ78mwl.s 			page 49


 985              		.loc 1 567 3 discriminator 2 view .LVU253
 569:Drivers/STM32G0xx_HAL_Driver/Src/stm32g0xx_hal_uart_ex.c **** 
 986              		.loc 1 569 3 discriminator 2 view .LVU254
 569:Drivers/STM32G0xx_HAL_Driver/Src/stm32g0xx_hal_uart_ex.c **** 
 987              		.loc 1 569 17 is_stmt 0 discriminator 2 view .LVU255
 988 0010 8825     		movs	r5, #136
 989 0012 2423     		movs	r3, #36
 990 0014 4351     		str	r3, [r0, r5]
 572:Drivers/STM32G0xx_HAL_Driver/Src/stm32g0xx_hal_uart_ex.c **** 
 991              		.loc 1 572 3 is_stmt 1 discriminator 2 view .LVU256
 572:Drivers/STM32G0xx_HAL_Driver/Src/stm32g0xx_hal_uart_ex.c **** 
 992              		.loc 1 572 12 is_stmt 0 discriminator 2 view .LVU257
 993 0016 0268     		ldr	r2, [r0]
 572:Drivers/STM32G0xx_HAL_Driver/Src/stm32g0xx_hal_uart_ex.c **** 
 994              		.loc 1 572 10 discriminator 2 view .LVU258
 995 0018 1368     		ldr	r3, [r2]
 996              	.LVL76:
 575:Drivers/STM32G0xx_HAL_Driver/Src/stm32g0xx_hal_uart_ex.c **** 
 997              		.loc 1 575 3 is_stmt 1 discriminator 2 view .LVU259
 998 001a 1168     		ldr	r1, [r2]
 999 001c B143     		bics	r1, r6
 1000 001e 1160     		str	r1, [r2]
 578:Drivers/STM32G0xx_HAL_Driver/Src/stm32g0xx_hal_uart_ex.c ****   huart->FifoMode = UART_FIFOMODE_DISABLE;
 1001              		.loc 1 578 3 discriminator 2 view .LVU260
 1002 0020 064A     		ldr	r2, .L43
 1003 0022 1340     		ands	r3, r2
 1004              	.LVL77:
 579:Drivers/STM32G0xx_HAL_Driver/Src/stm32g0xx_hal_uart_ex.c **** 
 1005              		.loc 1 579 3 discriminator 2 view .LVU261
 579:Drivers/STM32G0xx_HAL_Driver/Src/stm32g0xx_hal_uart_ex.c **** 
 1006              		.loc 1 579 19 is_stmt 0 discriminator 2 view .LVU262
 1007 0024 0022     		movs	r2, #0
 1008 0026 4266     		str	r2, [r0, #100]
 582:Drivers/STM32G0xx_HAL_Driver/Src/stm32g0xx_hal_uart_ex.c **** 
 1009              		.loc 1 582 3 is_stmt 1 discriminator 2 view .LVU263
 1010 0028 0168     		ldr	r1, [r0]
 1011 002a 0B60     		str	r3, [r1]
 584:Drivers/STM32G0xx_HAL_Driver/Src/stm32g0xx_hal_uart_ex.c **** 
 1012              		.loc 1 584 3 discriminator 2 view .LVU264
 584:Drivers/STM32G0xx_HAL_Driver/Src/stm32g0xx_hal_uart_ex.c **** 
 1013              		.loc 1 584 17 is_stmt 0 discriminator 2 view .LVU265
 1014 002c 2023     		movs	r3, #32
 1015              	.LVL78:
 584:Drivers/STM32G0xx_HAL_Driver/Src/stm32g0xx_hal_uart_ex.c **** 
 1016              		.loc 1 584 17 discriminator 2 view .LVU266
 1017 002e 4351     		str	r3, [r0, r5]
 1018              	.LVL79:
 587:Drivers/STM32G0xx_HAL_Driver/Src/stm32g0xx_hal_uart_ex.c **** 
 1019              		.loc 1 587 3 is_stmt 1 discriminator 2 view .LVU267
 587:Drivers/STM32G0xx_HAL_Driver/Src/stm32g0xx_hal_uart_ex.c **** 
 1020              		.loc 1 587 3 discriminator 2 view .LVU268
 1021 0030 0255     		strb	r2, [r0, r4]
 587:Drivers/STM32G0xx_HAL_Driver/Src/stm32g0xx_hal_uart_ex.c **** 
 1022              		.loc 1 587 3 discriminator 2 view .LVU269
 589:Drivers/STM32G0xx_HAL_Driver/Src/stm32g0xx_hal_uart_ex.c **** }
 1023              		.loc 1 589 3 discriminator 2 view .LVU270
 589:Drivers/STM32G0xx_HAL_Driver/Src/stm32g0xx_hal_uart_ex.c **** }
ARM GAS  C:\Users\W_LINU~1\AppData\Local\Temp\ccQ78mwl.s 			page 50


 1024              		.loc 1 589 10 is_stmt 0 discriminator 2 view .LVU271
 1025 0032 0020     		movs	r0, #0
 1026              	.LVL80:
 1027              	.L41:
 590:Drivers/STM32G0xx_HAL_Driver/Src/stm32g0xx_hal_uart_ex.c **** 
 1028              		.loc 1 590 1 view .LVU272
 1029              		@ sp needed
 1030 0034 70BD     		pop	{r4, r5, r6, pc}
 1031              	.LVL81:
 1032              	.L42:
 567:Drivers/STM32G0xx_HAL_Driver/Src/stm32g0xx_hal_uart_ex.c **** 
 1033              		.loc 1 567 3 view .LVU273
 1034 0036 0220     		movs	r0, #2
 1035              	.LVL82:
 567:Drivers/STM32G0xx_HAL_Driver/Src/stm32g0xx_hal_uart_ex.c **** 
 1036              		.loc 1 567 3 view .LVU274
 1037 0038 FCE7     		b	.L41
 1038              	.L44:
 1039 003a C046     		.align	2
 1040              	.L43:
 1041 003c FFFFFFDF 		.word	-536870913
 1042              		.cfi_endproc
 1043              	.LFE299:
 1045              		.section	.text.HAL_UARTEx_SetTxFifoThreshold,"ax",%progbits
 1046              		.align	1
 1047              		.global	HAL_UARTEx_SetTxFifoThreshold
 1048              		.syntax unified
 1049              		.code	16
 1050              		.thumb_func
 1052              	HAL_UARTEx_SetTxFifoThreshold:
 1053              	.LVL83:
 1054              	.LFB300:
 606:Drivers/STM32G0xx_HAL_Driver/Src/stm32g0xx_hal_uart_ex.c ****   uint32_t tmpcr1;
 1055              		.loc 1 606 1 is_stmt 1 view -0
 1056              		.cfi_startproc
 1057              		@ args = 0, pretend = 0, frame = 0
 1058              		@ frame_needed = 0, uses_anonymous_args = 0
 606:Drivers/STM32G0xx_HAL_Driver/Src/stm32g0xx_hal_uart_ex.c ****   uint32_t tmpcr1;
 1059              		.loc 1 606 1 is_stmt 0 view .LVU276
 1060 0000 F8B5     		push	{r3, r4, r5, r6, r7, lr}
 1061              	.LCFI10:
 1062              		.cfi_def_cfa_offset 24
 1063              		.cfi_offset 3, -24
 1064              		.cfi_offset 4, -20
 1065              		.cfi_offset 5, -16
 1066              		.cfi_offset 6, -12
 1067              		.cfi_offset 7, -8
 1068              		.cfi_offset 14, -4
 1069 0002 0400     		movs	r4, r0
 1070 0004 0A00     		movs	r2, r1
 607:Drivers/STM32G0xx_HAL_Driver/Src/stm32g0xx_hal_uart_ex.c **** 
 1071              		.loc 1 607 3 is_stmt 1 view .LVU277
 610:Drivers/STM32G0xx_HAL_Driver/Src/stm32g0xx_hal_uart_ex.c ****   assert_param(IS_UART_TXFIFO_THRESHOLD(Threshold));
 1072              		.loc 1 610 3 view .LVU278
 611:Drivers/STM32G0xx_HAL_Driver/Src/stm32g0xx_hal_uart_ex.c **** 
 1073              		.loc 1 611 3 view .LVU279
 614:Drivers/STM32G0xx_HAL_Driver/Src/stm32g0xx_hal_uart_ex.c **** 
ARM GAS  C:\Users\W_LINU~1\AppData\Local\Temp\ccQ78mwl.s 			page 51


 1074              		.loc 1 614 3 view .LVU280
 614:Drivers/STM32G0xx_HAL_Driver/Src/stm32g0xx_hal_uart_ex.c **** 
 1075              		.loc 1 614 3 view .LVU281
 1076 0006 8423     		movs	r3, #132
 1077 0008 C35C     		ldrb	r3, [r0, r3]
 1078 000a 012B     		cmp	r3, #1
 1079 000c 1BD0     		beq	.L47
 614:Drivers/STM32G0xx_HAL_Driver/Src/stm32g0xx_hal_uart_ex.c **** 
 1080              		.loc 1 614 3 discriminator 2 view .LVU282
 1081 000e 8425     		movs	r5, #132
 1082 0010 0120     		movs	r0, #1
 1083              	.LVL84:
 614:Drivers/STM32G0xx_HAL_Driver/Src/stm32g0xx_hal_uart_ex.c **** 
 1084              		.loc 1 614 3 is_stmt 0 discriminator 2 view .LVU283
 1085 0012 6055     		strb	r0, [r4, r5]
 614:Drivers/STM32G0xx_HAL_Driver/Src/stm32g0xx_hal_uart_ex.c **** 
 1086              		.loc 1 614 3 is_stmt 1 discriminator 2 view .LVU284
 616:Drivers/STM32G0xx_HAL_Driver/Src/stm32g0xx_hal_uart_ex.c **** 
 1087              		.loc 1 616 3 discriminator 2 view .LVU285
 616:Drivers/STM32G0xx_HAL_Driver/Src/stm32g0xx_hal_uart_ex.c **** 
 1088              		.loc 1 616 17 is_stmt 0 discriminator 2 view .LVU286
 1089 0014 8826     		movs	r6, #136
 1090 0016 2423     		movs	r3, #36
 1091 0018 A351     		str	r3, [r4, r6]
 619:Drivers/STM32G0xx_HAL_Driver/Src/stm32g0xx_hal_uart_ex.c **** 
 1092              		.loc 1 619 3 is_stmt 1 discriminator 2 view .LVU287
 619:Drivers/STM32G0xx_HAL_Driver/Src/stm32g0xx_hal_uart_ex.c **** 
 1093              		.loc 1 619 12 is_stmt 0 discriminator 2 view .LVU288
 1094 001a 2368     		ldr	r3, [r4]
 619:Drivers/STM32G0xx_HAL_Driver/Src/stm32g0xx_hal_uart_ex.c **** 
 1095              		.loc 1 619 10 discriminator 2 view .LVU289
 1096 001c 1F68     		ldr	r7, [r3]
 1097              	.LVL85:
 622:Drivers/STM32G0xx_HAL_Driver/Src/stm32g0xx_hal_uart_ex.c **** 
 1098              		.loc 1 622 3 is_stmt 1 discriminator 2 view .LVU290
 1099 001e 1968     		ldr	r1, [r3]
 1100              	.LVL86:
 622:Drivers/STM32G0xx_HAL_Driver/Src/stm32g0xx_hal_uart_ex.c **** 
 1101              		.loc 1 622 3 is_stmt 0 discriminator 2 view .LVU291
 1102 0020 8143     		bics	r1, r0
 1103 0022 1960     		str	r1, [r3]
 625:Drivers/STM32G0xx_HAL_Driver/Src/stm32g0xx_hal_uart_ex.c **** 
 1104              		.loc 1 625 3 is_stmt 1 discriminator 2 view .LVU292
 1105 0024 2068     		ldr	r0, [r4]
 1106 0026 8368     		ldr	r3, [r0, #8]
 1107 0028 DB00     		lsls	r3, r3, #3
 1108 002a D908     		lsrs	r1, r3, #3
 1109 002c 1143     		orrs	r1, r2
 1110 002e 8160     		str	r1, [r0, #8]
 628:Drivers/STM32G0xx_HAL_Driver/Src/stm32g0xx_hal_uart_ex.c **** 
 1111              		.loc 1 628 3 discriminator 2 view .LVU293
 1112 0030 2000     		movs	r0, r4
 1113 0032 FFF7FEFF 		bl	UARTEx_SetNbDataToProcess
 1114              	.LVL87:
 631:Drivers/STM32G0xx_HAL_Driver/Src/stm32g0xx_hal_uart_ex.c **** 
 1115              		.loc 1 631 3 discriminator 2 view .LVU294
 1116 0036 2368     		ldr	r3, [r4]
ARM GAS  C:\Users\W_LINU~1\AppData\Local\Temp\ccQ78mwl.s 			page 52


 1117 0038 1F60     		str	r7, [r3]
 633:Drivers/STM32G0xx_HAL_Driver/Src/stm32g0xx_hal_uart_ex.c **** 
 1118              		.loc 1 633 3 discriminator 2 view .LVU295
 633:Drivers/STM32G0xx_HAL_Driver/Src/stm32g0xx_hal_uart_ex.c **** 
 1119              		.loc 1 633 17 is_stmt 0 discriminator 2 view .LVU296
 1120 003a 2023     		movs	r3, #32
 1121 003c A351     		str	r3, [r4, r6]
 636:Drivers/STM32G0xx_HAL_Driver/Src/stm32g0xx_hal_uart_ex.c **** 
 1122              		.loc 1 636 3 is_stmt 1 discriminator 2 view .LVU297
 636:Drivers/STM32G0xx_HAL_Driver/Src/stm32g0xx_hal_uart_ex.c **** 
 1123              		.loc 1 636 3 discriminator 2 view .LVU298
 1124 003e 0023     		movs	r3, #0
 1125 0040 6355     		strb	r3, [r4, r5]
 636:Drivers/STM32G0xx_HAL_Driver/Src/stm32g0xx_hal_uart_ex.c **** 
 1126              		.loc 1 636 3 discriminator 2 view .LVU299
 638:Drivers/STM32G0xx_HAL_Driver/Src/stm32g0xx_hal_uart_ex.c **** }
 1127              		.loc 1 638 3 discriminator 2 view .LVU300
 638:Drivers/STM32G0xx_HAL_Driver/Src/stm32g0xx_hal_uart_ex.c **** }
 1128              		.loc 1 638 10 is_stmt 0 discriminator 2 view .LVU301
 1129 0042 0020     		movs	r0, #0
 1130              	.LVL88:
 1131              	.L46:
 639:Drivers/STM32G0xx_HAL_Driver/Src/stm32g0xx_hal_uart_ex.c **** 
 1132              		.loc 1 639 1 view .LVU302
 1133              		@ sp needed
 1134              	.LVL89:
 639:Drivers/STM32G0xx_HAL_Driver/Src/stm32g0xx_hal_uart_ex.c **** 
 1135              		.loc 1 639 1 view .LVU303
 1136 0044 F8BD     		pop	{r3, r4, r5, r6, r7, pc}
 1137              	.LVL90:
 1138              	.L47:
 614:Drivers/STM32G0xx_HAL_Driver/Src/stm32g0xx_hal_uart_ex.c **** 
 1139              		.loc 1 614 3 view .LVU304
 1140 0046 0220     		movs	r0, #2
 1141              	.LVL91:
 614:Drivers/STM32G0xx_HAL_Driver/Src/stm32g0xx_hal_uart_ex.c **** 
 1142              		.loc 1 614 3 view .LVU305
 1143 0048 FCE7     		b	.L46
 1144              		.cfi_endproc
 1145              	.LFE300:
 1147              		.section	.text.HAL_UARTEx_SetRxFifoThreshold,"ax",%progbits
 1148              		.align	1
 1149              		.global	HAL_UARTEx_SetRxFifoThreshold
 1150              		.syntax unified
 1151              		.code	16
 1152              		.thumb_func
 1154              	HAL_UARTEx_SetRxFifoThreshold:
 1155              	.LVL92:
 1156              	.LFB301:
 655:Drivers/STM32G0xx_HAL_Driver/Src/stm32g0xx_hal_uart_ex.c ****   uint32_t tmpcr1;
 1157              		.loc 1 655 1 is_stmt 1 view -0
 1158              		.cfi_startproc
 1159              		@ args = 0, pretend = 0, frame = 0
 1160              		@ frame_needed = 0, uses_anonymous_args = 0
 655:Drivers/STM32G0xx_HAL_Driver/Src/stm32g0xx_hal_uart_ex.c ****   uint32_t tmpcr1;
 1161              		.loc 1 655 1 is_stmt 0 view .LVU307
 1162 0000 F8B5     		push	{r3, r4, r5, r6, r7, lr}
ARM GAS  C:\Users\W_LINU~1\AppData\Local\Temp\ccQ78mwl.s 			page 53


 1163              	.LCFI11:
 1164              		.cfi_def_cfa_offset 24
 1165              		.cfi_offset 3, -24
 1166              		.cfi_offset 4, -20
 1167              		.cfi_offset 5, -16
 1168              		.cfi_offset 6, -12
 1169              		.cfi_offset 7, -8
 1170              		.cfi_offset 14, -4
 1171 0002 0400     		movs	r4, r0
 1172 0004 0B00     		movs	r3, r1
 656:Drivers/STM32G0xx_HAL_Driver/Src/stm32g0xx_hal_uart_ex.c **** 
 1173              		.loc 1 656 3 is_stmt 1 view .LVU308
 659:Drivers/STM32G0xx_HAL_Driver/Src/stm32g0xx_hal_uart_ex.c ****   assert_param(IS_UART_RXFIFO_THRESHOLD(Threshold));
 1174              		.loc 1 659 3 view .LVU309
 660:Drivers/STM32G0xx_HAL_Driver/Src/stm32g0xx_hal_uart_ex.c **** 
 1175              		.loc 1 660 3 view .LVU310
 663:Drivers/STM32G0xx_HAL_Driver/Src/stm32g0xx_hal_uart_ex.c **** 
 1176              		.loc 1 663 3 view .LVU311
 663:Drivers/STM32G0xx_HAL_Driver/Src/stm32g0xx_hal_uart_ex.c **** 
 1177              		.loc 1 663 3 view .LVU312
 1178 0006 8422     		movs	r2, #132
 1179 0008 825C     		ldrb	r2, [r0, r2]
 1180 000a 012A     		cmp	r2, #1
 1181 000c 1BD0     		beq	.L50
 663:Drivers/STM32G0xx_HAL_Driver/Src/stm32g0xx_hal_uart_ex.c **** 
 1182              		.loc 1 663 3 discriminator 2 view .LVU313
 1183 000e 8425     		movs	r5, #132
 1184 0010 0120     		movs	r0, #1
 1185              	.LVL93:
 663:Drivers/STM32G0xx_HAL_Driver/Src/stm32g0xx_hal_uart_ex.c **** 
 1186              		.loc 1 663 3 is_stmt 0 discriminator 2 view .LVU314
 1187 0012 6055     		strb	r0, [r4, r5]
 663:Drivers/STM32G0xx_HAL_Driver/Src/stm32g0xx_hal_uart_ex.c **** 
 1188              		.loc 1 663 3 is_stmt 1 discriminator 2 view .LVU315
 665:Drivers/STM32G0xx_HAL_Driver/Src/stm32g0xx_hal_uart_ex.c **** 
 1189              		.loc 1 665 3 discriminator 2 view .LVU316
 665:Drivers/STM32G0xx_HAL_Driver/Src/stm32g0xx_hal_uart_ex.c **** 
 1190              		.loc 1 665 17 is_stmt 0 discriminator 2 view .LVU317
 1191 0014 8826     		movs	r6, #136
 1192 0016 2422     		movs	r2, #36
 1193 0018 A251     		str	r2, [r4, r6]
 668:Drivers/STM32G0xx_HAL_Driver/Src/stm32g0xx_hal_uart_ex.c **** 
 1194              		.loc 1 668 3 is_stmt 1 discriminator 2 view .LVU318
 668:Drivers/STM32G0xx_HAL_Driver/Src/stm32g0xx_hal_uart_ex.c **** 
 1195              		.loc 1 668 12 is_stmt 0 discriminator 2 view .LVU319
 1196 001a 2268     		ldr	r2, [r4]
 668:Drivers/STM32G0xx_HAL_Driver/Src/stm32g0xx_hal_uart_ex.c **** 
 1197              		.loc 1 668 10 discriminator 2 view .LVU320
 1198 001c 1768     		ldr	r7, [r2]
 1199              	.LVL94:
 671:Drivers/STM32G0xx_HAL_Driver/Src/stm32g0xx_hal_uart_ex.c **** 
 1200              		.loc 1 671 3 is_stmt 1 discriminator 2 view .LVU321
 1201 001e 1168     		ldr	r1, [r2]
 1202              	.LVL95:
 671:Drivers/STM32G0xx_HAL_Driver/Src/stm32g0xx_hal_uart_ex.c **** 
 1203              		.loc 1 671 3 is_stmt 0 discriminator 2 view .LVU322
 1204 0020 8143     		bics	r1, r0
ARM GAS  C:\Users\W_LINU~1\AppData\Local\Temp\ccQ78mwl.s 			page 54


 1205 0022 1160     		str	r1, [r2]
 674:Drivers/STM32G0xx_HAL_Driver/Src/stm32g0xx_hal_uart_ex.c **** 
 1206              		.loc 1 674 3 is_stmt 1 discriminator 2 view .LVU323
 1207 0024 2268     		ldr	r2, [r4]
 1208 0026 9168     		ldr	r1, [r2, #8]
 1209 0028 0848     		ldr	r0, .L51
 1210 002a 0140     		ands	r1, r0
 1211 002c 1943     		orrs	r1, r3
 1212 002e 9160     		str	r1, [r2, #8]
 677:Drivers/STM32G0xx_HAL_Driver/Src/stm32g0xx_hal_uart_ex.c **** 
 1213              		.loc 1 677 3 discriminator 2 view .LVU324
 1214 0030 2000     		movs	r0, r4
 1215 0032 FFF7FEFF 		bl	UARTEx_SetNbDataToProcess
 1216              	.LVL96:
 680:Drivers/STM32G0xx_HAL_Driver/Src/stm32g0xx_hal_uart_ex.c **** 
 1217              		.loc 1 680 3 discriminator 2 view .LVU325
 1218 0036 2368     		ldr	r3, [r4]
 1219 0038 1F60     		str	r7, [r3]
 682:Drivers/STM32G0xx_HAL_Driver/Src/stm32g0xx_hal_uart_ex.c **** 
 1220              		.loc 1 682 3 discriminator 2 view .LVU326
 682:Drivers/STM32G0xx_HAL_Driver/Src/stm32g0xx_hal_uart_ex.c **** 
 1221              		.loc 1 682 17 is_stmt 0 discriminator 2 view .LVU327
 1222 003a 2023     		movs	r3, #32
 1223 003c A351     		str	r3, [r4, r6]
 685:Drivers/STM32G0xx_HAL_Driver/Src/stm32g0xx_hal_uart_ex.c **** 
 1224              		.loc 1 685 3 is_stmt 1 discriminator 2 view .LVU328
 685:Drivers/STM32G0xx_HAL_Driver/Src/stm32g0xx_hal_uart_ex.c **** 
 1225              		.loc 1 685 3 discriminator 2 view .LVU329
 1226 003e 0023     		movs	r3, #0
 1227 0040 6355     		strb	r3, [r4, r5]
 685:Drivers/STM32G0xx_HAL_Driver/Src/stm32g0xx_hal_uart_ex.c **** 
 1228              		.loc 1 685 3 discriminator 2 view .LVU330
 687:Drivers/STM32G0xx_HAL_Driver/Src/stm32g0xx_hal_uart_ex.c **** }
 1229              		.loc 1 687 3 discriminator 2 view .LVU331
 687:Drivers/STM32G0xx_HAL_Driver/Src/stm32g0xx_hal_uart_ex.c **** }
 1230              		.loc 1 687 10 is_stmt 0 discriminator 2 view .LVU332
 1231 0042 0020     		movs	r0, #0
 1232              	.LVL97:
 1233              	.L49:
 688:Drivers/STM32G0xx_HAL_Driver/Src/stm32g0xx_hal_uart_ex.c **** 
 1234              		.loc 1 688 1 view .LVU333
 1235              		@ sp needed
 1236              	.LVL98:
 688:Drivers/STM32G0xx_HAL_Driver/Src/stm32g0xx_hal_uart_ex.c **** 
 1237              		.loc 1 688 1 view .LVU334
 1238 0044 F8BD     		pop	{r3, r4, r5, r6, r7, pc}
 1239              	.LVL99:
 1240              	.L50:
 663:Drivers/STM32G0xx_HAL_Driver/Src/stm32g0xx_hal_uart_ex.c **** 
 1241              		.loc 1 663 3 view .LVU335
 1242 0046 0220     		movs	r0, #2
 1243              	.LVL100:
 663:Drivers/STM32G0xx_HAL_Driver/Src/stm32g0xx_hal_uart_ex.c **** 
 1244              		.loc 1 663 3 view .LVU336
 1245 0048 FCE7     		b	.L49
 1246              	.L52:
 1247 004a C046     		.align	2
ARM GAS  C:\Users\W_LINU~1\AppData\Local\Temp\ccQ78mwl.s 			page 55


 1248              	.L51:
 1249 004c FFFFFFF1 		.word	-234881025
 1250              		.cfi_endproc
 1251              	.LFE301:
 1253              		.section	.text.HAL_UARTEx_ReceiveToIdle,"ax",%progbits
 1254              		.align	1
 1255              		.global	HAL_UARTEx_ReceiveToIdle
 1256              		.syntax unified
 1257              		.code	16
 1258              		.thumb_func
 1260              	HAL_UARTEx_ReceiveToIdle:
 1261              	.LVL101:
 1262              	.LFB302:
 718:Drivers/STM32G0xx_HAL_Driver/Src/stm32g0xx_hal_uart_ex.c ****   uint8_t  *pdata8bits;
 1263              		.loc 1 718 1 is_stmt 1 view -0
 1264              		.cfi_startproc
 1265              		@ args = 4, pretend = 0, frame = 8
 1266              		@ frame_needed = 0, uses_anonymous_args = 0
 718:Drivers/STM32G0xx_HAL_Driver/Src/stm32g0xx_hal_uart_ex.c ****   uint8_t  *pdata8bits;
 1267              		.loc 1 718 1 is_stmt 0 view .LVU338
 1268 0000 F0B5     		push	{r4, r5, r6, r7, lr}
 1269              	.LCFI12:
 1270              		.cfi_def_cfa_offset 20
 1271              		.cfi_offset 4, -20
 1272              		.cfi_offset 5, -16
 1273              		.cfi_offset 6, -12
 1274              		.cfi_offset 7, -8
 1275              		.cfi_offset 14, -4
 1276 0002 D646     		mov	lr, r10
 1277 0004 4F46     		mov	r7, r9
 1278 0006 4646     		mov	r6, r8
 1279 0008 C0B5     		push	{r6, r7, lr}
 1280              	.LCFI13:
 1281              		.cfi_def_cfa_offset 32
 1282              		.cfi_offset 8, -32
 1283              		.cfi_offset 9, -28
 1284              		.cfi_offset 10, -24
 1285 000a 82B0     		sub	sp, sp, #8
 1286              	.LCFI14:
 1287              		.cfi_def_cfa_offset 40
 1288 000c 0400     		movs	r4, r0
 1289 000e 0D00     		movs	r5, r1
 1290 0010 9046     		mov	r8, r2
 1291 0012 1F00     		movs	r7, r3
 1292 0014 0A9E     		ldr	r6, [sp, #40]
 719:Drivers/STM32G0xx_HAL_Driver/Src/stm32g0xx_hal_uart_ex.c ****   uint16_t *pdata16bits;
 1293              		.loc 1 719 3 is_stmt 1 view .LVU339
 720:Drivers/STM32G0xx_HAL_Driver/Src/stm32g0xx_hal_uart_ex.c ****   uint16_t uhMask;
 1294              		.loc 1 720 3 view .LVU340
 721:Drivers/STM32G0xx_HAL_Driver/Src/stm32g0xx_hal_uart_ex.c ****   uint32_t tickstart;
 1295              		.loc 1 721 3 view .LVU341
 722:Drivers/STM32G0xx_HAL_Driver/Src/stm32g0xx_hal_uart_ex.c **** 
 1296              		.loc 1 722 3 view .LVU342
 725:Drivers/STM32G0xx_HAL_Driver/Src/stm32g0xx_hal_uart_ex.c ****   {
 1297              		.loc 1 725 3 view .LVU343
 725:Drivers/STM32G0xx_HAL_Driver/Src/stm32g0xx_hal_uart_ex.c ****   {
 1298              		.loc 1 725 12 is_stmt 0 view .LVU344
ARM GAS  C:\Users\W_LINU~1\AppData\Local\Temp\ccQ78mwl.s 			page 56


 1299 0016 8C23     		movs	r3, #140
 1300              	.LVL102:
 725:Drivers/STM32G0xx_HAL_Driver/Src/stm32g0xx_hal_uart_ex.c ****   {
 1301              		.loc 1 725 12 view .LVU345
 1302 0018 C358     		ldr	r3, [r0, r3]
 725:Drivers/STM32G0xx_HAL_Driver/Src/stm32g0xx_hal_uart_ex.c ****   {
 1303              		.loc 1 725 6 view .LVU346
 1304 001a 202B     		cmp	r3, #32
 1305 001c 00D0     		beq	.LCB1121
 1306 001e B1E0     		b	.L72	@long jump
 1307              	.LCB1121:
 727:Drivers/STM32G0xx_HAL_Driver/Src/stm32g0xx_hal_uart_ex.c ****     {
 1308              		.loc 1 727 5 is_stmt 1 view .LVU347
 727:Drivers/STM32G0xx_HAL_Driver/Src/stm32g0xx_hal_uart_ex.c ****     {
 1309              		.loc 1 727 8 is_stmt 0 view .LVU348
 1310 0020 0029     		cmp	r1, #0
 1311 0022 00D1     		bne	.LCB1124
 1312 0024 B5E0     		b	.L73	@long jump
 1313              	.LCB1124:
 727:Drivers/STM32G0xx_HAL_Driver/Src/stm32g0xx_hal_uart_ex.c ****     {
 1314              		.loc 1 727 25 discriminator 1 view .LVU349
 1315 0026 002A     		cmp	r2, #0
 1316 0028 00D1     		bne	.LCB1126
 1317 002a B4E0     		b	.L74	@long jump
 1318              	.LCB1126:
 735:Drivers/STM32G0xx_HAL_Driver/Src/stm32g0xx_hal_uart_ex.c ****     {
 1319              		.loc 1 735 5 is_stmt 1 view .LVU350
 735:Drivers/STM32G0xx_HAL_Driver/Src/stm32g0xx_hal_uart_ex.c ****     {
 1320              		.loc 1 735 21 is_stmt 0 view .LVU351
 1321 002c 8268     		ldr	r2, [r0, #8]
 1322              	.LVL103:
 735:Drivers/STM32G0xx_HAL_Driver/Src/stm32g0xx_hal_uart_ex.c ****     {
 1323              		.loc 1 735 8 view .LVU352
 1324 002e 8023     		movs	r3, #128
 1325 0030 5B01     		lsls	r3, r3, #5
 1326 0032 9A42     		cmp	r2, r3
 1327 0034 05D1     		bne	.L55
 735:Drivers/STM32G0xx_HAL_Driver/Src/stm32g0xx_hal_uart_ex.c ****     {
 1328              		.loc 1 735 71 discriminator 1 view .LVU353
 1329 0036 0369     		ldr	r3, [r0, #16]
 735:Drivers/STM32G0xx_HAL_Driver/Src/stm32g0xx_hal_uart_ex.c ****     {
 1330              		.loc 1 735 56 discriminator 1 view .LVU354
 1331 0038 002B     		cmp	r3, #0
 1332 003a 02D1     		bne	.L55
 737:Drivers/STM32G0xx_HAL_Driver/Src/stm32g0xx_hal_uart_ex.c ****       {
 1333              		.loc 1 737 7 is_stmt 1 view .LVU355
 737:Drivers/STM32G0xx_HAL_Driver/Src/stm32g0xx_hal_uart_ex.c ****       {
 1334              		.loc 1 737 10 is_stmt 0 view .LVU356
 1335 003c CB07     		lsls	r3, r1, #31
 1336 003e 00D5     		bpl	.LCB1141
 1337 0040 ABE0     		b	.L75	@long jump
 1338              	.LCB1141:
 1339              	.L55:
 743:Drivers/STM32G0xx_HAL_Driver/Src/stm32g0xx_hal_uart_ex.c ****     huart->RxState = HAL_UART_STATE_BUSY_RX;
 1340              		.loc 1 743 5 is_stmt 1 view .LVU357
 743:Drivers/STM32G0xx_HAL_Driver/Src/stm32g0xx_hal_uart_ex.c ****     huart->RxState = HAL_UART_STATE_BUSY_RX;
 1341              		.loc 1 743 22 is_stmt 0 view .LVU358
ARM GAS  C:\Users\W_LINU~1\AppData\Local\Temp\ccQ78mwl.s 			page 57


 1342 0042 0023     		movs	r3, #0
 1343 0044 9022     		movs	r2, #144
 1344 0046 A350     		str	r3, [r4, r2]
 744:Drivers/STM32G0xx_HAL_Driver/Src/stm32g0xx_hal_uart_ex.c ****     huart->ReceptionType = HAL_UART_RECEPTION_TOIDLE;
 1345              		.loc 1 744 5 is_stmt 1 view .LVU359
 744:Drivers/STM32G0xx_HAL_Driver/Src/stm32g0xx_hal_uart_ex.c ****     huart->ReceptionType = HAL_UART_RECEPTION_TOIDLE;
 1346              		.loc 1 744 20 is_stmt 0 view .LVU360
 1347 0048 043A     		subs	r2, r2, #4
 1348 004a 2221     		movs	r1, #34
 1349              	.LVL104:
 744:Drivers/STM32G0xx_HAL_Driver/Src/stm32g0xx_hal_uart_ex.c ****     huart->ReceptionType = HAL_UART_RECEPTION_TOIDLE;
 1350              		.loc 1 744 20 view .LVU361
 1351 004c A150     		str	r1, [r4, r2]
 745:Drivers/STM32G0xx_HAL_Driver/Src/stm32g0xx_hal_uart_ex.c ****     huart->RxEventType = HAL_UART_RXEVENT_TC;
 1352              		.loc 1 745 5 is_stmt 1 view .LVU362
 745:Drivers/STM32G0xx_HAL_Driver/Src/stm32g0xx_hal_uart_ex.c ****     huart->RxEventType = HAL_UART_RXEVENT_TC;
 1353              		.loc 1 745 26 is_stmt 0 view .LVU363
 1354 004e 8B3A     		subs	r2, r2, #139
 1355 0050 E266     		str	r2, [r4, #108]
 746:Drivers/STM32G0xx_HAL_Driver/Src/stm32g0xx_hal_uart_ex.c **** 
 1356              		.loc 1 746 5 is_stmt 1 view .LVU364
 746:Drivers/STM32G0xx_HAL_Driver/Src/stm32g0xx_hal_uart_ex.c **** 
 1357              		.loc 1 746 24 is_stmt 0 view .LVU365
 1358 0052 2367     		str	r3, [r4, #112]
 749:Drivers/STM32G0xx_HAL_Driver/Src/stm32g0xx_hal_uart_ex.c **** 
 1359              		.loc 1 749 5 is_stmt 1 view .LVU366
 749:Drivers/STM32G0xx_HAL_Driver/Src/stm32g0xx_hal_uart_ex.c **** 
 1360              		.loc 1 749 17 is_stmt 0 view .LVU367
 1361 0054 FFF7FEFF 		bl	HAL_GetTick
 1362              	.LVL105:
 749:Drivers/STM32G0xx_HAL_Driver/Src/stm32g0xx_hal_uart_ex.c **** 
 1363              		.loc 1 749 17 view .LVU368
 1364 0058 8146     		mov	r9, r0
 1365              	.LVL106:
 751:Drivers/STM32G0xx_HAL_Driver/Src/stm32g0xx_hal_uart_ex.c ****     huart->RxXferCount = Size;
 1366              		.loc 1 751 5 is_stmt 1 view .LVU369
 751:Drivers/STM32G0xx_HAL_Driver/Src/stm32g0xx_hal_uart_ex.c ****     huart->RxXferCount = Size;
 1367              		.loc 1 751 24 is_stmt 0 view .LVU370
 1368 005a 5C23     		movs	r3, #92
 1369 005c 4246     		mov	r2, r8
 1370 005e E252     		strh	r2, [r4, r3]
 752:Drivers/STM32G0xx_HAL_Driver/Src/stm32g0xx_hal_uart_ex.c **** 
 1371              		.loc 1 752 5 is_stmt 1 view .LVU371
 752:Drivers/STM32G0xx_HAL_Driver/Src/stm32g0xx_hal_uart_ex.c **** 
 1372              		.loc 1 752 24 is_stmt 0 view .LVU372
 1373 0060 0233     		adds	r3, r3, #2
 1374 0062 E252     		strh	r2, [r4, r3]
 755:Drivers/STM32G0xx_HAL_Driver/Src/stm32g0xx_hal_uart_ex.c ****     uhMask = huart->Mask;
 1375              		.loc 1 755 5 is_stmt 1 view .LVU373
 755:Drivers/STM32G0xx_HAL_Driver/Src/stm32g0xx_hal_uart_ex.c ****     uhMask = huart->Mask;
 1376              		.loc 1 755 5 view .LVU374
 1377 0064 A368     		ldr	r3, [r4, #8]
 1378 0066 8022     		movs	r2, #128
 1379 0068 5201     		lsls	r2, r2, #5
 1380 006a 9342     		cmp	r3, r2
 1381 006c 08D0     		beq	.L81
 755:Drivers/STM32G0xx_HAL_Driver/Src/stm32g0xx_hal_uart_ex.c ****     uhMask = huart->Mask;
ARM GAS  C:\Users\W_LINU~1\AppData\Local\Temp\ccQ78mwl.s 			page 58


 1382              		.loc 1 755 5 discriminator 2 view .LVU375
 1383 006e 002B     		cmp	r3, #0
 1384 0070 15D1     		bne	.L59
 755:Drivers/STM32G0xx_HAL_Driver/Src/stm32g0xx_hal_uart_ex.c ****     uhMask = huart->Mask;
 1385              		.loc 1 755 5 discriminator 5 view .LVU376
 1386 0072 2269     		ldr	r2, [r4, #16]
 1387 0074 002A     		cmp	r2, #0
 1388 0076 0ED1     		bne	.L60
 755:Drivers/STM32G0xx_HAL_Driver/Src/stm32g0xx_hal_uart_ex.c ****     uhMask = huart->Mask;
 1389              		.loc 1 755 5 discriminator 7 view .LVU377
 1390 0078 6032     		adds	r2, r2, #96
 1391 007a FF21     		movs	r1, #255
 1392 007c A152     		strh	r1, [r4, r2]
 1393 007e 15E0     		b	.L58
 1394              	.L81:
 755:Drivers/STM32G0xx_HAL_Driver/Src/stm32g0xx_hal_uart_ex.c ****     uhMask = huart->Mask;
 1395              		.loc 1 755 5 discriminator 1 view .LVU378
 1396 0080 2269     		ldr	r2, [r4, #16]
 1397 0082 002A     		cmp	r2, #0
 1398 0084 03D1     		bne	.L57
 755:Drivers/STM32G0xx_HAL_Driver/Src/stm32g0xx_hal_uart_ex.c ****     uhMask = huart->Mask;
 1399              		.loc 1 755 5 discriminator 3 view .LVU379
 1400 0086 6032     		adds	r2, r2, #96
 1401 0088 4549     		ldr	r1, .L88
 1402 008a A152     		strh	r1, [r4, r2]
 1403 008c 0EE0     		b	.L58
 1404              	.L57:
 755:Drivers/STM32G0xx_HAL_Driver/Src/stm32g0xx_hal_uart_ex.c ****     uhMask = huart->Mask;
 1405              		.loc 1 755 5 discriminator 4 view .LVU380
 1406 008e 6022     		movs	r2, #96
 1407 0090 FF21     		movs	r1, #255
 1408 0092 A152     		strh	r1, [r4, r2]
 1409 0094 0AE0     		b	.L58
 1410              	.L60:
 755:Drivers/STM32G0xx_HAL_Driver/Src/stm32g0xx_hal_uart_ex.c ****     uhMask = huart->Mask;
 1411              		.loc 1 755 5 discriminator 8 view .LVU381
 1412 0096 6022     		movs	r2, #96
 1413 0098 7F21     		movs	r1, #127
 1414 009a A152     		strh	r1, [r4, r2]
 1415 009c 06E0     		b	.L58
 1416              	.L59:
 755:Drivers/STM32G0xx_HAL_Driver/Src/stm32g0xx_hal_uart_ex.c ****     uhMask = huart->Mask;
 1417              		.loc 1 755 5 discriminator 6 view .LVU382
 1418 009e 8022     		movs	r2, #128
 1419 00a0 5205     		lsls	r2, r2, #21
 1420 00a2 9342     		cmp	r3, r2
 1421 00a4 0ED0     		beq	.L82
 755:Drivers/STM32G0xx_HAL_Driver/Src/stm32g0xx_hal_uart_ex.c ****     uhMask = huart->Mask;
 1422              		.loc 1 755 5 discriminator 10 view .LVU383
 1423 00a6 6022     		movs	r2, #96
 1424 00a8 0021     		movs	r1, #0
 1425 00aa A152     		strh	r1, [r4, r2]
 1426              	.L58:
 755:Drivers/STM32G0xx_HAL_Driver/Src/stm32g0xx_hal_uart_ex.c ****     uhMask = huart->Mask;
 1427              		.loc 1 755 5 discriminator 13 view .LVU384
 756:Drivers/STM32G0xx_HAL_Driver/Src/stm32g0xx_hal_uart_ex.c **** 
 1428              		.loc 1 756 5 discriminator 13 view .LVU385
ARM GAS  C:\Users\W_LINU~1\AppData\Local\Temp\ccQ78mwl.s 			page 59


 756:Drivers/STM32G0xx_HAL_Driver/Src/stm32g0xx_hal_uart_ex.c **** 
 1429              		.loc 1 756 12 is_stmt 0 discriminator 13 view .LVU386
 1430 00ac 6022     		movs	r2, #96
 1431 00ae A25A     		ldrh	r2, [r4, r2]
 1432 00b0 0192     		str	r2, [sp, #4]
 1433              	.LVL107:
 759:Drivers/STM32G0xx_HAL_Driver/Src/stm32g0xx_hal_uart_ex.c ****     {
 1434              		.loc 1 759 5 is_stmt 1 discriminator 13 view .LVU387
 759:Drivers/STM32G0xx_HAL_Driver/Src/stm32g0xx_hal_uart_ex.c ****     {
 1435              		.loc 1 759 8 is_stmt 0 discriminator 13 view .LVU388
 1436 00b2 8022     		movs	r2, #128
 1437 00b4 5201     		lsls	r2, r2, #5
 1438 00b6 9342     		cmp	r3, r2
 1439 00b8 0FD0     		beq	.L83
 767:Drivers/STM32G0xx_HAL_Driver/Src/stm32g0xx_hal_uart_ex.c ****     }
 1440              		.loc 1 767 19 view .LVU389
 1441 00ba 0023     		movs	r3, #0
 1442 00bc 9A46     		mov	r10, r3
 1443              	.LVL108:
 1444              	.L63:
 771:Drivers/STM32G0xx_HAL_Driver/Src/stm32g0xx_hal_uart_ex.c **** 
 1445              		.loc 1 771 5 is_stmt 1 view .LVU390
 771:Drivers/STM32G0xx_HAL_Driver/Src/stm32g0xx_hal_uart_ex.c **** 
 1446              		.loc 1 771 12 is_stmt 0 view .LVU391
 1447 00be 0023     		movs	r3, #0
 1448 00c0 3B80     		strh	r3, [r7]
 774:Drivers/STM32G0xx_HAL_Driver/Src/stm32g0xx_hal_uart_ex.c ****     {
 1449              		.loc 1 774 5 is_stmt 1 view .LVU392
 774:Drivers/STM32G0xx_HAL_Driver/Src/stm32g0xx_hal_uart_ex.c ****     {
 1450              		.loc 1 774 11 is_stmt 0 view .LVU393
 1451 00c2 2CE0     		b	.L64
 1452              	.LVL109:
 1453              	.L82:
 755:Drivers/STM32G0xx_HAL_Driver/Src/stm32g0xx_hal_uart_ex.c ****     uhMask = huart->Mask;
 1454              		.loc 1 755 5 is_stmt 1 discriminator 9 view .LVU394
 1455 00c4 2269     		ldr	r2, [r4, #16]
 1456 00c6 002A     		cmp	r2, #0
 1457 00c8 03D1     		bne	.L62
 755:Drivers/STM32G0xx_HAL_Driver/Src/stm32g0xx_hal_uart_ex.c ****     uhMask = huart->Mask;
 1458              		.loc 1 755 5 discriminator 11 view .LVU395
 1459 00ca 6032     		adds	r2, r2, #96
 1460 00cc 7F21     		movs	r1, #127
 1461 00ce A152     		strh	r1, [r4, r2]
 1462 00d0 ECE7     		b	.L58
 1463              	.L62:
 755:Drivers/STM32G0xx_HAL_Driver/Src/stm32g0xx_hal_uart_ex.c ****     uhMask = huart->Mask;
 1464              		.loc 1 755 5 discriminator 12 view .LVU396
 1465 00d2 6022     		movs	r2, #96
 1466 00d4 3F21     		movs	r1, #63
 1467 00d6 A152     		strh	r1, [r4, r2]
 1468 00d8 E8E7     		b	.L58
 1469              	.LVL110:
 1470              	.L83:
 759:Drivers/STM32G0xx_HAL_Driver/Src/stm32g0xx_hal_uart_ex.c ****     {
 1471              		.loc 1 759 71 is_stmt 0 discriminator 1 view .LVU397
 1472 00da 2369     		ldr	r3, [r4, #16]
 759:Drivers/STM32G0xx_HAL_Driver/Src/stm32g0xx_hal_uart_ex.c ****     {
ARM GAS  C:\Users\W_LINU~1\AppData\Local\Temp\ccQ78mwl.s 			page 60


 1473              		.loc 1 759 56 discriminator 1 view .LVU398
 1474 00dc 002B     		cmp	r3, #0
 1475 00de 02D0     		beq	.L77
 767:Drivers/STM32G0xx_HAL_Driver/Src/stm32g0xx_hal_uart_ex.c ****     }
 1476              		.loc 1 767 19 view .LVU399
 1477 00e0 0023     		movs	r3, #0
 1478 00e2 9A46     		mov	r10, r3
 1479 00e4 EBE7     		b	.L63
 1480              	.L77:
 762:Drivers/STM32G0xx_HAL_Driver/Src/stm32g0xx_hal_uart_ex.c ****     }
 1481              		.loc 1 762 19 view .LVU400
 1482 00e6 AA46     		mov	r10, r5
 761:Drivers/STM32G0xx_HAL_Driver/Src/stm32g0xx_hal_uart_ex.c ****       pdata16bits = (uint16_t *) pData;
 1483              		.loc 1 761 19 view .LVU401
 1484 00e8 0025     		movs	r5, #0
 1485              	.LVL111:
 761:Drivers/STM32G0xx_HAL_Driver/Src/stm32g0xx_hal_uart_ex.c ****       pdata16bits = (uint16_t *) pData;
 1486              		.loc 1 761 19 view .LVU402
 1487 00ea E8E7     		b	.L63
 1488              	.LVL112:
 1489              	.L86:
 786:Drivers/STM32G0xx_HAL_Driver/Src/stm32g0xx_hal_uart_ex.c ****           huart->RxState = HAL_UART_STATE_READY;
 1490              		.loc 1 786 11 is_stmt 1 view .LVU403
 786:Drivers/STM32G0xx_HAL_Driver/Src/stm32g0xx_hal_uart_ex.c ****           huart->RxState = HAL_UART_STATE_READY;
 1491              		.loc 1 786 30 is_stmt 0 view .LVU404
 1492 00ec 0223     		movs	r3, #2
 1493 00ee 2367     		str	r3, [r4, #112]
 787:Drivers/STM32G0xx_HAL_Driver/Src/stm32g0xx_hal_uart_ex.c **** 
 1494              		.loc 1 787 11 is_stmt 1 view .LVU405
 787:Drivers/STM32G0xx_HAL_Driver/Src/stm32g0xx_hal_uart_ex.c **** 
 1495              		.loc 1 787 26 is_stmt 0 view .LVU406
 1496 00f0 8A33     		adds	r3, r3, #138
 1497 00f2 2022     		movs	r2, #32
 1498 00f4 E250     		str	r2, [r4, r3]
 789:Drivers/STM32G0xx_HAL_Driver/Src/stm32g0xx_hal_uart_ex.c ****         }
 1499              		.loc 1 789 11 is_stmt 1 view .LVU407
 789:Drivers/STM32G0xx_HAL_Driver/Src/stm32g0xx_hal_uart_ex.c ****         }
 1500              		.loc 1 789 18 is_stmt 0 view .LVU408
 1501 00f6 0020     		movs	r0, #0
 1502 00f8 45E0     		b	.L54
 1503              	.L87:
 798:Drivers/STM32G0xx_HAL_Driver/Src/stm32g0xx_hal_uart_ex.c ****           pdata16bits++;
 1504              		.loc 1 798 11 is_stmt 1 view .LVU409
 798:Drivers/STM32G0xx_HAL_Driver/Src/stm32g0xx_hal_uart_ex.c ****           pdata16bits++;
 1505              		.loc 1 798 52 is_stmt 0 view .LVU410
 1506 00fa 536A     		ldr	r3, [r2, #36]
 798:Drivers/STM32G0xx_HAL_Driver/Src/stm32g0xx_hal_uart_ex.c ****           pdata16bits++;
 1507              		.loc 1 798 26 view .LVU411
 1508 00fc 019A     		ldr	r2, [sp, #4]
 1509 00fe 1340     		ands	r3, r2
 798:Drivers/STM32G0xx_HAL_Driver/Src/stm32g0xx_hal_uart_ex.c ****           pdata16bits++;
 1510              		.loc 1 798 24 view .LVU412
 1511 0100 5246     		mov	r2, r10
 1512 0102 1380     		strh	r3, [r2]
 799:Drivers/STM32G0xx_HAL_Driver/Src/stm32g0xx_hal_uart_ex.c ****         }
 1513              		.loc 1 799 11 is_stmt 1 view .LVU413
 799:Drivers/STM32G0xx_HAL_Driver/Src/stm32g0xx_hal_uart_ex.c ****         }
ARM GAS  C:\Users\W_LINU~1\AppData\Local\Temp\ccQ78mwl.s 			page 61


 1514              		.loc 1 799 22 is_stmt 0 view .LVU414
 1515 0104 0223     		movs	r3, #2
 1516 0106 9C46     		mov	ip, r3
 1517 0108 E244     		add	r10, r10, ip
 1518              	.LVL113:
 1519              	.L68:
 807:Drivers/STM32G0xx_HAL_Driver/Src/stm32g0xx_hal_uart_ex.c ****         huart->RxXferCount--;
 1520              		.loc 1 807 9 is_stmt 1 view .LVU415
 1521 010a 3B88     		ldrh	r3, [r7]
 807:Drivers/STM32G0xx_HAL_Driver/Src/stm32g0xx_hal_uart_ex.c ****         huart->RxXferCount--;
 1522              		.loc 1 807 16 is_stmt 0 view .LVU416
 1523 010c 0133     		adds	r3, r3, #1
 1524 010e 3B80     		strh	r3, [r7]
 808:Drivers/STM32G0xx_HAL_Driver/Src/stm32g0xx_hal_uart_ex.c ****       }
 1525              		.loc 1 808 9 is_stmt 1 view .LVU417
 808:Drivers/STM32G0xx_HAL_Driver/Src/stm32g0xx_hal_uart_ex.c ****       }
 1526              		.loc 1 808 14 is_stmt 0 view .LVU418
 1527 0110 5E22     		movs	r2, #94
 1528 0112 A35A     		ldrh	r3, [r4, r2]
 808:Drivers/STM32G0xx_HAL_Driver/Src/stm32g0xx_hal_uart_ex.c ****       }
 1529              		.loc 1 808 27 view .LVU419
 1530 0114 013B     		subs	r3, r3, #1
 1531 0116 9BB2     		uxth	r3, r3
 1532 0118 A352     		strh	r3, [r4, r2]
 1533              	.L66:
 812:Drivers/STM32G0xx_HAL_Driver/Src/stm32g0xx_hal_uart_ex.c ****       {
 1534              		.loc 1 812 7 is_stmt 1 view .LVU420
 812:Drivers/STM32G0xx_HAL_Driver/Src/stm32g0xx_hal_uart_ex.c ****       {
 1535              		.loc 1 812 10 is_stmt 0 view .LVU421
 1536 011a 731C     		adds	r3, r6, #1
 1537 011c 1AD1     		bne	.L84
 1538              	.L64:
 774:Drivers/STM32G0xx_HAL_Driver/Src/stm32g0xx_hal_uart_ex.c ****     {
 1539              		.loc 1 774 31 is_stmt 1 view .LVU422
 774:Drivers/STM32G0xx_HAL_Driver/Src/stm32g0xx_hal_uart_ex.c ****     {
 1540              		.loc 1 774 17 is_stmt 0 view .LVU423
 1541 011e 5E23     		movs	r3, #94
 1542 0120 E25A     		ldrh	r2, [r4, r3]
 1543 0122 92B2     		uxth	r2, r2
 774:Drivers/STM32G0xx_HAL_Driver/Src/stm32g0xx_hal_uart_ex.c ****     {
 1544              		.loc 1 774 31 view .LVU424
 1545 0124 002A     		cmp	r2, #0
 1546 0126 22D0     		beq	.L85
 777:Drivers/STM32G0xx_HAL_Driver/Src/stm32g0xx_hal_uart_ex.c ****       {
 1547              		.loc 1 777 7 is_stmt 1 view .LVU425
 777:Drivers/STM32G0xx_HAL_Driver/Src/stm32g0xx_hal_uart_ex.c ****       {
 1548              		.loc 1 777 11 is_stmt 0 view .LVU426
 1549 0128 2268     		ldr	r2, [r4]
 1550 012a D369     		ldr	r3, [r2, #28]
 777:Drivers/STM32G0xx_HAL_Driver/Src/stm32g0xx_hal_uart_ex.c ****       {
 1551              		.loc 1 777 10 view .LVU427
 1552 012c DB06     		lsls	r3, r3, #27
 1553 012e 04D5     		bpl	.L65
 780:Drivers/STM32G0xx_HAL_Driver/Src/stm32g0xx_hal_uart_ex.c **** 
 1554              		.loc 1 780 9 is_stmt 1 view .LVU428
 1555 0130 1023     		movs	r3, #16
 1556 0132 1362     		str	r3, [r2, #32]
ARM GAS  C:\Users\W_LINU~1\AppData\Local\Temp\ccQ78mwl.s 			page 62


 784:Drivers/STM32G0xx_HAL_Driver/Src/stm32g0xx_hal_uart_ex.c ****         {
 1557              		.loc 1 784 9 view .LVU429
 784:Drivers/STM32G0xx_HAL_Driver/Src/stm32g0xx_hal_uart_ex.c ****         {
 1558              		.loc 1 784 13 is_stmt 0 view .LVU430
 1559 0134 3B88     		ldrh	r3, [r7]
 784:Drivers/STM32G0xx_HAL_Driver/Src/stm32g0xx_hal_uart_ex.c ****         {
 1560              		.loc 1 784 12 view .LVU431
 1561 0136 002B     		cmp	r3, #0
 1562 0138 D8D1     		bne	.L86
 1563              	.L65:
 794:Drivers/STM32G0xx_HAL_Driver/Src/stm32g0xx_hal_uart_ex.c ****       {
 1564              		.loc 1 794 7 is_stmt 1 view .LVU432
 794:Drivers/STM32G0xx_HAL_Driver/Src/stm32g0xx_hal_uart_ex.c ****       {
 1565              		.loc 1 794 11 is_stmt 0 view .LVU433
 1566 013a 2268     		ldr	r2, [r4]
 1567 013c D369     		ldr	r3, [r2, #28]
 794:Drivers/STM32G0xx_HAL_Driver/Src/stm32g0xx_hal_uart_ex.c ****       {
 1568              		.loc 1 794 10 view .LVU434
 1569 013e 9B06     		lsls	r3, r3, #26
 1570 0140 EBD5     		bpl	.L66
 796:Drivers/STM32G0xx_HAL_Driver/Src/stm32g0xx_hal_uart_ex.c ****         {
 1571              		.loc 1 796 9 is_stmt 1 view .LVU435
 796:Drivers/STM32G0xx_HAL_Driver/Src/stm32g0xx_hal_uart_ex.c ****         {
 1572              		.loc 1 796 12 is_stmt 0 view .LVU436
 1573 0142 002D     		cmp	r5, #0
 1574 0144 D9D0     		beq	.L87
 803:Drivers/STM32G0xx_HAL_Driver/Src/stm32g0xx_hal_uart_ex.c ****           pdata8bits++;
 1575              		.loc 1 803 11 is_stmt 1 view .LVU437
 803:Drivers/STM32G0xx_HAL_Driver/Src/stm32g0xx_hal_uart_ex.c ****           pdata8bits++;
 1576              		.loc 1 803 50 is_stmt 0 view .LVU438
 1577 0146 536A     		ldr	r3, [r2, #36]
 803:Drivers/STM32G0xx_HAL_Driver/Src/stm32g0xx_hal_uart_ex.c ****           pdata8bits++;
 1578              		.loc 1 803 58 view .LVU439
 1579 0148 6A46     		mov	r2, sp
 1580 014a 1279     		ldrb	r2, [r2, #4]
 803:Drivers/STM32G0xx_HAL_Driver/Src/stm32g0xx_hal_uart_ex.c ****           pdata8bits++;
 1581              		.loc 1 803 25 view .LVU440
 1582 014c 1340     		ands	r3, r2
 803:Drivers/STM32G0xx_HAL_Driver/Src/stm32g0xx_hal_uart_ex.c ****           pdata8bits++;
 1583              		.loc 1 803 23 view .LVU441
 1584 014e 2B70     		strb	r3, [r5]
 804:Drivers/STM32G0xx_HAL_Driver/Src/stm32g0xx_hal_uart_ex.c ****         }
 1585              		.loc 1 804 11 is_stmt 1 view .LVU442
 804:Drivers/STM32G0xx_HAL_Driver/Src/stm32g0xx_hal_uart_ex.c ****         }
 1586              		.loc 1 804 21 is_stmt 0 view .LVU443
 1587 0150 0135     		adds	r5, r5, #1
 1588              	.LVL114:
 804:Drivers/STM32G0xx_HAL_Driver/Src/stm32g0xx_hal_uart_ex.c ****         }
 1589              		.loc 1 804 21 view .LVU444
 1590 0152 DAE7     		b	.L68
 1591              	.L84:
 814:Drivers/STM32G0xx_HAL_Driver/Src/stm32g0xx_hal_uart_ex.c ****         {
 1592              		.loc 1 814 9 is_stmt 1 view .LVU445
 814:Drivers/STM32G0xx_HAL_Driver/Src/stm32g0xx_hal_uart_ex.c ****         {
 1593              		.loc 1 814 15 is_stmt 0 view .LVU446
 1594 0154 FFF7FEFF 		bl	HAL_GetTick
 1595              	.LVL115:
ARM GAS  C:\Users\W_LINU~1\AppData\Local\Temp\ccQ78mwl.s 			page 63


 814:Drivers/STM32G0xx_HAL_Driver/Src/stm32g0xx_hal_uart_ex.c ****         {
 1596              		.loc 1 814 29 view .LVU447
 1597 0158 4B46     		mov	r3, r9
 1598 015a C01A     		subs	r0, r0, r3
 814:Drivers/STM32G0xx_HAL_Driver/Src/stm32g0xx_hal_uart_ex.c ****         {
 1599              		.loc 1 814 12 view .LVU448
 1600 015c B042     		cmp	r0, r6
 1601 015e 01D8     		bhi	.L70
 1602              	.LVL116:
 814:Drivers/STM32G0xx_HAL_Driver/Src/stm32g0xx_hal_uart_ex.c ****         {
 1603              		.loc 1 814 53 discriminator 1 view .LVU449
 1604 0160 002E     		cmp	r6, #0
 1605 0162 DCD1     		bne	.L64
 1606              	.L70:
 816:Drivers/STM32G0xx_HAL_Driver/Src/stm32g0xx_hal_uart_ex.c **** 
 1607              		.loc 1 816 11 is_stmt 1 view .LVU450
 816:Drivers/STM32G0xx_HAL_Driver/Src/stm32g0xx_hal_uart_ex.c **** 
 1608              		.loc 1 816 26 is_stmt 0 view .LVU451
 1609 0164 8C23     		movs	r3, #140
 1610              	.LVL117:
 816:Drivers/STM32G0xx_HAL_Driver/Src/stm32g0xx_hal_uart_ex.c **** 
 1611              		.loc 1 816 26 view .LVU452
 1612 0166 2022     		movs	r2, #32
 1613 0168 E250     		str	r2, [r4, r3]
 818:Drivers/STM32G0xx_HAL_Driver/Src/stm32g0xx_hal_uart_ex.c ****         }
 1614              		.loc 1 818 11 is_stmt 1 view .LVU453
 818:Drivers/STM32G0xx_HAL_Driver/Src/stm32g0xx_hal_uart_ex.c ****         }
 1615              		.loc 1 818 18 is_stmt 0 view .LVU454
 1616 016a 0320     		movs	r0, #3
 1617 016c 0BE0     		b	.L54
 1618              	.L85:
 824:Drivers/STM32G0xx_HAL_Driver/Src/stm32g0xx_hal_uart_ex.c ****     /* At end of Rx process, restore huart->RxState to Ready */
 1619              		.loc 1 824 5 is_stmt 1 view .LVU455
 824:Drivers/STM32G0xx_HAL_Driver/Src/stm32g0xx_hal_uart_ex.c ****     /* At end of Rx process, restore huart->RxState to Ready */
 1620              		.loc 1 824 19 is_stmt 0 view .LVU456
 1621 016e 023B     		subs	r3, r3, #2
 1622 0170 E35A     		ldrh	r3, [r4, r3]
 824:Drivers/STM32G0xx_HAL_Driver/Src/stm32g0xx_hal_uart_ex.c ****     /* At end of Rx process, restore huart->RxState to Ready */
 1623              		.loc 1 824 39 view .LVU457
 1624 0172 5E32     		adds	r2, r2, #94
 1625 0174 A25A     		ldrh	r2, [r4, r2]
 824:Drivers/STM32G0xx_HAL_Driver/Src/stm32g0xx_hal_uart_ex.c ****     /* At end of Rx process, restore huart->RxState to Ready */
 1626              		.loc 1 824 32 view .LVU458
 1627 0176 9B1A     		subs	r3, r3, r2
 824:Drivers/STM32G0xx_HAL_Driver/Src/stm32g0xx_hal_uart_ex.c ****     /* At end of Rx process, restore huart->RxState to Ready */
 1628              		.loc 1 824 12 view .LVU459
 1629 0178 3B80     		strh	r3, [r7]
 826:Drivers/STM32G0xx_HAL_Driver/Src/stm32g0xx_hal_uart_ex.c **** 
 1630              		.loc 1 826 5 is_stmt 1 view .LVU460
 826:Drivers/STM32G0xx_HAL_Driver/Src/stm32g0xx_hal_uart_ex.c **** 
 1631              		.loc 1 826 20 is_stmt 0 view .LVU461
 1632 017a 8C23     		movs	r3, #140
 1633 017c 2022     		movs	r2, #32
 1634 017e E250     		str	r2, [r4, r3]
 828:Drivers/STM32G0xx_HAL_Driver/Src/stm32g0xx_hal_uart_ex.c ****   }
 1635              		.loc 1 828 5 is_stmt 1 view .LVU462
 828:Drivers/STM32G0xx_HAL_Driver/Src/stm32g0xx_hal_uart_ex.c ****   }
ARM GAS  C:\Users\W_LINU~1\AppData\Local\Temp\ccQ78mwl.s 			page 64


 1636              		.loc 1 828 12 is_stmt 0 view .LVU463
 1637 0180 0020     		movs	r0, #0
 1638 0182 00E0     		b	.L54
 1639              	.LVL118:
 1640              	.L72:
 832:Drivers/STM32G0xx_HAL_Driver/Src/stm32g0xx_hal_uart_ex.c ****   }
 1641              		.loc 1 832 12 view .LVU464
 1642 0184 0220     		movs	r0, #2
 1643              	.LVL119:
 1644              	.L54:
 834:Drivers/STM32G0xx_HAL_Driver/Src/stm32g0xx_hal_uart_ex.c **** 
 1645              		.loc 1 834 1 view .LVU465
 1646 0186 02B0     		add	sp, sp, #8
 1647              		@ sp needed
 1648              	.LVL120:
 1649              	.LVL121:
 834:Drivers/STM32G0xx_HAL_Driver/Src/stm32g0xx_hal_uart_ex.c **** 
 1650              		.loc 1 834 1 view .LVU466
 1651 0188 E0BC     		pop	{r5, r6, r7}
 1652 018a BA46     		mov	r10, r7
 1653 018c B146     		mov	r9, r6
 1654 018e A846     		mov	r8, r5
 1655 0190 F0BD     		pop	{r4, r5, r6, r7, pc}
 1656              	.LVL122:
 1657              	.L73:
 729:Drivers/STM32G0xx_HAL_Driver/Src/stm32g0xx_hal_uart_ex.c ****     }
 1658              		.loc 1 729 15 view .LVU467
 1659 0192 0120     		movs	r0, #1
 1660              	.LVL123:
 729:Drivers/STM32G0xx_HAL_Driver/Src/stm32g0xx_hal_uart_ex.c ****     }
 1661              		.loc 1 729 15 view .LVU468
 1662 0194 F7E7     		b	.L54
 1663              	.LVL124:
 1664              	.L74:
 729:Drivers/STM32G0xx_HAL_Driver/Src/stm32g0xx_hal_uart_ex.c ****     }
 1665              		.loc 1 729 15 view .LVU469
 1666 0196 0120     		movs	r0, #1
 1667              	.LVL125:
 729:Drivers/STM32G0xx_HAL_Driver/Src/stm32g0xx_hal_uart_ex.c ****     }
 1668              		.loc 1 729 15 view .LVU470
 1669 0198 F5E7     		b	.L54
 1670              	.LVL126:
 1671              	.L75:
 739:Drivers/STM32G0xx_HAL_Driver/Src/stm32g0xx_hal_uart_ex.c ****       }
 1672              		.loc 1 739 17 view .LVU471
 1673 019a 0120     		movs	r0, #1
 1674              	.LVL127:
 739:Drivers/STM32G0xx_HAL_Driver/Src/stm32g0xx_hal_uart_ex.c ****       }
 1675              		.loc 1 739 17 view .LVU472
 1676 019c F3E7     		b	.L54
 1677              	.L89:
 1678 019e C046     		.align	2
 1679              	.L88:
 1680 01a0 FF010000 		.word	511
 1681              		.cfi_endproc
 1682              	.LFE302:
 1684              		.section	.text.HAL_UARTEx_ReceiveToIdle_IT,"ax",%progbits
ARM GAS  C:\Users\W_LINU~1\AppData\Local\Temp\ccQ78mwl.s 			page 65


 1685              		.align	1
 1686              		.global	HAL_UARTEx_ReceiveToIdle_IT
 1687              		.syntax unified
 1688              		.code	16
 1689              		.thumb_func
 1691              	HAL_UARTEx_ReceiveToIdle_IT:
 1692              	.LVL128:
 1693              	.LFB303:
 856:Drivers/STM32G0xx_HAL_Driver/Src/stm32g0xx_hal_uart_ex.c ****   HAL_StatusTypeDef status;
 1694              		.loc 1 856 1 is_stmt 1 view -0
 1695              		.cfi_startproc
 1696              		@ args = 0, pretend = 0, frame = 0
 1697              		@ frame_needed = 0, uses_anonymous_args = 0
 856:Drivers/STM32G0xx_HAL_Driver/Src/stm32g0xx_hal_uart_ex.c ****   HAL_StatusTypeDef status;
 1698              		.loc 1 856 1 is_stmt 0 view .LVU474
 1699 0000 10B5     		push	{r4, lr}
 1700              	.LCFI15:
 1701              		.cfi_def_cfa_offset 8
 1702              		.cfi_offset 4, -8
 1703              		.cfi_offset 14, -4
 1704 0002 0400     		movs	r4, r0
 857:Drivers/STM32G0xx_HAL_Driver/Src/stm32g0xx_hal_uart_ex.c **** 
 1705              		.loc 1 857 3 is_stmt 1 view .LVU475
 860:Drivers/STM32G0xx_HAL_Driver/Src/stm32g0xx_hal_uart_ex.c ****   {
 1706              		.loc 1 860 3 view .LVU476
 860:Drivers/STM32G0xx_HAL_Driver/Src/stm32g0xx_hal_uart_ex.c ****   {
 1707              		.loc 1 860 12 is_stmt 0 view .LVU477
 1708 0004 8C23     		movs	r3, #140
 1709 0006 C358     		ldr	r3, [r0, r3]
 860:Drivers/STM32G0xx_HAL_Driver/Src/stm32g0xx_hal_uart_ex.c ****   {
 1710              		.loc 1 860 6 view .LVU478
 1711 0008 202B     		cmp	r3, #32
 1712 000a 2AD1     		bne	.L94
 862:Drivers/STM32G0xx_HAL_Driver/Src/stm32g0xx_hal_uart_ex.c ****     {
 1713              		.loc 1 862 5 is_stmt 1 view .LVU479
 862:Drivers/STM32G0xx_HAL_Driver/Src/stm32g0xx_hal_uart_ex.c ****     {
 1714              		.loc 1 862 8 is_stmt 0 view .LVU480
 1715 000c 0029     		cmp	r1, #0
 1716 000e 2AD0     		beq	.L95
 862:Drivers/STM32G0xx_HAL_Driver/Src/stm32g0xx_hal_uart_ex.c ****     {
 1717              		.loc 1 862 25 discriminator 1 view .LVU481
 1718 0010 002A     		cmp	r2, #0
 1719 0012 2AD0     		beq	.L96
 870:Drivers/STM32G0xx_HAL_Driver/Src/stm32g0xx_hal_uart_ex.c ****     {
 1720              		.loc 1 870 5 is_stmt 1 view .LVU482
 870:Drivers/STM32G0xx_HAL_Driver/Src/stm32g0xx_hal_uart_ex.c ****     {
 1721              		.loc 1 870 21 is_stmt 0 view .LVU483
 1722 0014 8068     		ldr	r0, [r0, #8]
 1723              	.LVL129:
 870:Drivers/STM32G0xx_HAL_Driver/Src/stm32g0xx_hal_uart_ex.c ****     {
 1724              		.loc 1 870 8 view .LVU484
 1725 0016 8023     		movs	r3, #128
 1726 0018 5B01     		lsls	r3, r3, #5
 1727 001a 9842     		cmp	r0, r3
 1728 001c 04D1     		bne	.L92
 870:Drivers/STM32G0xx_HAL_Driver/Src/stm32g0xx_hal_uart_ex.c ****     {
 1729              		.loc 1 870 71 discriminator 1 view .LVU485
ARM GAS  C:\Users\W_LINU~1\AppData\Local\Temp\ccQ78mwl.s 			page 66


 1730 001e 2369     		ldr	r3, [r4, #16]
 870:Drivers/STM32G0xx_HAL_Driver/Src/stm32g0xx_hal_uart_ex.c ****     {
 1731              		.loc 1 870 56 discriminator 1 view .LVU486
 1732 0020 002B     		cmp	r3, #0
 1733 0022 01D1     		bne	.L92
 872:Drivers/STM32G0xx_HAL_Driver/Src/stm32g0xx_hal_uart_ex.c ****       {
 1734              		.loc 1 872 7 is_stmt 1 view .LVU487
 872:Drivers/STM32G0xx_HAL_Driver/Src/stm32g0xx_hal_uart_ex.c ****       {
 1735              		.loc 1 872 10 is_stmt 0 view .LVU488
 1736 0024 CB07     		lsls	r3, r1, #31
 1737 0026 22D4     		bmi	.L97
 1738              	.L92:
 879:Drivers/STM32G0xx_HAL_Driver/Src/stm32g0xx_hal_uart_ex.c ****     huart->RxEventType = HAL_UART_RXEVENT_TC;
 1739              		.loc 1 879 5 is_stmt 1 view .LVU489
 879:Drivers/STM32G0xx_HAL_Driver/Src/stm32g0xx_hal_uart_ex.c ****     huart->RxEventType = HAL_UART_RXEVENT_TC;
 1740              		.loc 1 879 26 is_stmt 0 view .LVU490
 1741 0028 0123     		movs	r3, #1
 1742 002a E366     		str	r3, [r4, #108]
 880:Drivers/STM32G0xx_HAL_Driver/Src/stm32g0xx_hal_uart_ex.c **** 
 1743              		.loc 1 880 5 is_stmt 1 view .LVU491
 880:Drivers/STM32G0xx_HAL_Driver/Src/stm32g0xx_hal_uart_ex.c **** 
 1744              		.loc 1 880 24 is_stmt 0 view .LVU492
 1745 002c 0023     		movs	r3, #0
 1746 002e 2367     		str	r3, [r4, #112]
 882:Drivers/STM32G0xx_HAL_Driver/Src/stm32g0xx_hal_uart_ex.c **** 
 1747              		.loc 1 882 5 is_stmt 1 view .LVU493
 882:Drivers/STM32G0xx_HAL_Driver/Src/stm32g0xx_hal_uart_ex.c **** 
 1748              		.loc 1 882 15 is_stmt 0 view .LVU494
 1749 0030 2000     		movs	r0, r4
 1750 0032 FFF7FEFF 		bl	UART_Start_Receive_IT
 1751              	.LVL130:
 885:Drivers/STM32G0xx_HAL_Driver/Src/stm32g0xx_hal_uart_ex.c ****     {
 1752              		.loc 1 885 5 is_stmt 1 view .LVU495
 885:Drivers/STM32G0xx_HAL_Driver/Src/stm32g0xx_hal_uart_ex.c ****     {
 1753              		.loc 1 885 8 is_stmt 0 view .LVU496
 1754 0036 0028     		cmp	r0, #0
 1755 0038 14D1     		bne	.L91
 887:Drivers/STM32G0xx_HAL_Driver/Src/stm32g0xx_hal_uart_ex.c ****       {
 1756              		.loc 1 887 7 is_stmt 1 view .LVU497
 887:Drivers/STM32G0xx_HAL_Driver/Src/stm32g0xx_hal_uart_ex.c ****       {
 1757              		.loc 1 887 16 is_stmt 0 view .LVU498
 1758 003a E36E     		ldr	r3, [r4, #108]
 887:Drivers/STM32G0xx_HAL_Driver/Src/stm32g0xx_hal_uart_ex.c ****       {
 1759              		.loc 1 887 10 view .LVU499
 1760 003c 012B     		cmp	r3, #1
 1761 003e 01D0     		beq	.L99
 898:Drivers/STM32G0xx_HAL_Driver/Src/stm32g0xx_hal_uart_ex.c ****       }
 1762              		.loc 1 898 16 view .LVU500
 1763 0040 0120     		movs	r0, #1
 1764              	.LVL131:
 902:Drivers/STM32G0xx_HAL_Driver/Src/stm32g0xx_hal_uart_ex.c ****   }
 1765              		.loc 1 902 5 is_stmt 1 view .LVU501
 902:Drivers/STM32G0xx_HAL_Driver/Src/stm32g0xx_hal_uart_ex.c ****   }
 1766              		.loc 1 902 12 is_stmt 0 view .LVU502
 1767 0042 0FE0     		b	.L91
 1768              	.LVL132:
 1769              	.L99:
ARM GAS  C:\Users\W_LINU~1\AppData\Local\Temp\ccQ78mwl.s 			page 67


 889:Drivers/STM32G0xx_HAL_Driver/Src/stm32g0xx_hal_uart_ex.c ****         ATOMIC_SET_BIT(huart->Instance->CR1, USART_CR1_IDLEIE);
 1770              		.loc 1 889 9 is_stmt 1 view .LVU503
 1771 0044 2368     		ldr	r3, [r4]
 1772 0046 1021     		movs	r1, #16
 1773 0048 1962     		str	r1, [r3, #32]
 890:Drivers/STM32G0xx_HAL_Driver/Src/stm32g0xx_hal_uart_ex.c ****       }
 1774              		.loc 1 890 9 view .LVU504
 1775              	.LBB44:
 890:Drivers/STM32G0xx_HAL_Driver/Src/stm32g0xx_hal_uart_ex.c ****       }
 1776              		.loc 1 890 9 view .LVU505
 890:Drivers/STM32G0xx_HAL_Driver/Src/stm32g0xx_hal_uart_ex.c ****       }
 1777              		.loc 1 890 9 view .LVU506
 1778              	.LBB45:
 1779              	.LBI45:
 449:Drivers/CMSIS/Include/cmsis_gcc.h **** {
 1780              		.loc 2 449 31 view .LVU507
 1781              	.LBB46:
 451:Drivers/CMSIS/Include/cmsis_gcc.h **** 
 1782              		.loc 2 451 3 view .LVU508
 453:Drivers/CMSIS/Include/cmsis_gcc.h ****   return(result);
 1783              		.loc 2 453 3 view .LVU509
 1784              		.syntax divided
 1785              	@ 453 "Drivers/CMSIS/Include/cmsis_gcc.h" 1
 1786 004a EFF3108C 		MRS ip, primask
 1787              	@ 0 "" 2
 1788              	.LVL133:
 454:Drivers/CMSIS/Include/cmsis_gcc.h **** }
 1789              		.loc 2 454 3 view .LVU510
 454:Drivers/CMSIS/Include/cmsis_gcc.h **** }
 1790              		.loc 2 454 3 is_stmt 0 view .LVU511
 1791              		.thumb
 1792              		.syntax unified
 1793              	.LBE46:
 1794              	.LBE45:
 890:Drivers/STM32G0xx_HAL_Driver/Src/stm32g0xx_hal_uart_ex.c ****       }
 1795              		.loc 1 890 9 is_stmt 1 view .LVU512
 1796              	.LBB47:
 1797              	.LBI47:
 479:Drivers/CMSIS/Include/cmsis_gcc.h **** {
 1798              		.loc 2 479 27 view .LVU513
 1799              	.LBB48:
 1800              		.loc 2 481 3 view .LVU514
 1801 004e 0123     		movs	r3, #1
 1802              		.syntax divided
 1803              	@ 481 "Drivers/CMSIS/Include/cmsis_gcc.h" 1
 1804 0050 83F31088 		MSR primask, r3
 1805              	@ 0 "" 2
 1806              	.LVL134:
 1807              		.loc 2 481 3 is_stmt 0 view .LVU515
 1808              		.thumb
 1809              		.syntax unified
 1810              	.LBE48:
 1811              	.LBE47:
 890:Drivers/STM32G0xx_HAL_Driver/Src/stm32g0xx_hal_uart_ex.c ****       }
 1812              		.loc 1 890 9 is_stmt 1 view .LVU516
 1813 0054 2268     		ldr	r2, [r4]
 1814 0056 1368     		ldr	r3, [r2]
ARM GAS  C:\Users\W_LINU~1\AppData\Local\Temp\ccQ78mwl.s 			page 68


 1815 0058 0B43     		orrs	r3, r1
 1816 005a 1360     		str	r3, [r2]
 890:Drivers/STM32G0xx_HAL_Driver/Src/stm32g0xx_hal_uart_ex.c ****       }
 1817              		.loc 1 890 9 view .LVU517
 1818              	.LVL135:
 1819              	.LBB49:
 1820              	.LBI49:
 479:Drivers/CMSIS/Include/cmsis_gcc.h **** {
 1821              		.loc 2 479 27 view .LVU518
 1822              	.LBB50:
 1823              		.loc 2 481 3 view .LVU519
 1824              		.syntax divided
 1825              	@ 481 "Drivers/CMSIS/Include/cmsis_gcc.h" 1
 1826 005c 8CF31088 		MSR primask, ip
 1827              	@ 0 "" 2
 482:Drivers/CMSIS/Include/cmsis_gcc.h **** }
 1828              		.loc 2 482 1 is_stmt 0 view .LVU520
 1829              		.thumb
 1830              		.syntax unified
 1831 0060 00E0     		b	.L91
 1832              	.LVL136:
 1833              	.L94:
 1834              		.loc 2 482 1 view .LVU521
 1835              	.LBE50:
 1836              	.LBE49:
 1837              	.LBE44:
 906:Drivers/STM32G0xx_HAL_Driver/Src/stm32g0xx_hal_uart_ex.c ****   }
 1838              		.loc 1 906 12 view .LVU522
 1839 0062 0220     		movs	r0, #2
 1840              	.LVL137:
 1841              	.L91:
 908:Drivers/STM32G0xx_HAL_Driver/Src/stm32g0xx_hal_uart_ex.c **** 
 1842              		.loc 1 908 1 view .LVU523
 1843              		@ sp needed
 1844              	.LVL138:
 908:Drivers/STM32G0xx_HAL_Driver/Src/stm32g0xx_hal_uart_ex.c **** 
 1845              		.loc 1 908 1 view .LVU524
 1846 0064 10BD     		pop	{r4, pc}
 1847              	.LVL139:
 1848              	.L95:
 864:Drivers/STM32G0xx_HAL_Driver/Src/stm32g0xx_hal_uart_ex.c ****     }
 1849              		.loc 1 864 14 view .LVU525
 1850 0066 0120     		movs	r0, #1
 1851              	.LVL140:
 864:Drivers/STM32G0xx_HAL_Driver/Src/stm32g0xx_hal_uart_ex.c ****     }
 1852              		.loc 1 864 14 view .LVU526
 1853 0068 FCE7     		b	.L91
 1854              	.LVL141:
 1855              	.L96:
 864:Drivers/STM32G0xx_HAL_Driver/Src/stm32g0xx_hal_uart_ex.c ****     }
 1856              		.loc 1 864 14 view .LVU527
 1857 006a 0120     		movs	r0, #1
 1858              	.LVL142:
 864:Drivers/STM32G0xx_HAL_Driver/Src/stm32g0xx_hal_uart_ex.c ****     }
 1859              		.loc 1 864 14 view .LVU528
 1860 006c FAE7     		b	.L91
 1861              	.L97:
ARM GAS  C:\Users\W_LINU~1\AppData\Local\Temp\ccQ78mwl.s 			page 69


 874:Drivers/STM32G0xx_HAL_Driver/Src/stm32g0xx_hal_uart_ex.c ****       }
 1862              		.loc 1 874 17 view .LVU529
 1863 006e 0120     		movs	r0, #1
 1864 0070 F8E7     		b	.L91
 1865              		.cfi_endproc
 1866              	.LFE303:
 1868              		.section	.text.HAL_UARTEx_ReceiveToIdle_DMA,"ax",%progbits
 1869              		.align	1
 1870              		.global	HAL_UARTEx_ReceiveToIdle_DMA
 1871              		.syntax unified
 1872              		.code	16
 1873              		.thumb_func
 1875              	HAL_UARTEx_ReceiveToIdle_DMA:
 1876              	.LVL143:
 1877              	.LFB304:
 933:Drivers/STM32G0xx_HAL_Driver/Src/stm32g0xx_hal_uart_ex.c ****   HAL_StatusTypeDef status;
 1878              		.loc 1 933 1 is_stmt 1 view -0
 1879              		.cfi_startproc
 1880              		@ args = 0, pretend = 0, frame = 0
 1881              		@ frame_needed = 0, uses_anonymous_args = 0
 933:Drivers/STM32G0xx_HAL_Driver/Src/stm32g0xx_hal_uart_ex.c ****   HAL_StatusTypeDef status;
 1882              		.loc 1 933 1 is_stmt 0 view .LVU531
 1883 0000 10B5     		push	{r4, lr}
 1884              	.LCFI16:
 1885              		.cfi_def_cfa_offset 8
 1886              		.cfi_offset 4, -8
 1887              		.cfi_offset 14, -4
 1888 0002 0400     		movs	r4, r0
 934:Drivers/STM32G0xx_HAL_Driver/Src/stm32g0xx_hal_uart_ex.c **** 
 1889              		.loc 1 934 3 is_stmt 1 view .LVU532
 937:Drivers/STM32G0xx_HAL_Driver/Src/stm32g0xx_hal_uart_ex.c ****   {
 1890              		.loc 1 937 3 view .LVU533
 937:Drivers/STM32G0xx_HAL_Driver/Src/stm32g0xx_hal_uart_ex.c ****   {
 1891              		.loc 1 937 12 is_stmt 0 view .LVU534
 1892 0004 8C23     		movs	r3, #140
 1893 0006 C358     		ldr	r3, [r0, r3]
 937:Drivers/STM32G0xx_HAL_Driver/Src/stm32g0xx_hal_uart_ex.c ****   {
 1894              		.loc 1 937 6 view .LVU535
 1895 0008 202B     		cmp	r3, #32
 1896 000a 2AD1     		bne	.L104
 939:Drivers/STM32G0xx_HAL_Driver/Src/stm32g0xx_hal_uart_ex.c ****     {
 1897              		.loc 1 939 5 is_stmt 1 view .LVU536
 939:Drivers/STM32G0xx_HAL_Driver/Src/stm32g0xx_hal_uart_ex.c ****     {
 1898              		.loc 1 939 8 is_stmt 0 view .LVU537
 1899 000c 0029     		cmp	r1, #0
 1900 000e 2AD0     		beq	.L105
 939:Drivers/STM32G0xx_HAL_Driver/Src/stm32g0xx_hal_uart_ex.c ****     {
 1901              		.loc 1 939 25 discriminator 1 view .LVU538
 1902 0010 002A     		cmp	r2, #0
 1903 0012 2AD0     		beq	.L106
 947:Drivers/STM32G0xx_HAL_Driver/Src/stm32g0xx_hal_uart_ex.c ****     {
 1904              		.loc 1 947 5 is_stmt 1 view .LVU539
 947:Drivers/STM32G0xx_HAL_Driver/Src/stm32g0xx_hal_uart_ex.c ****     {
 1905              		.loc 1 947 21 is_stmt 0 view .LVU540
 1906 0014 8068     		ldr	r0, [r0, #8]
 1907              	.LVL144:
 947:Drivers/STM32G0xx_HAL_Driver/Src/stm32g0xx_hal_uart_ex.c ****     {
ARM GAS  C:\Users\W_LINU~1\AppData\Local\Temp\ccQ78mwl.s 			page 70


 1908              		.loc 1 947 8 view .LVU541
 1909 0016 8023     		movs	r3, #128
 1910 0018 5B01     		lsls	r3, r3, #5
 1911 001a 9842     		cmp	r0, r3
 1912 001c 04D1     		bne	.L102
 947:Drivers/STM32G0xx_HAL_Driver/Src/stm32g0xx_hal_uart_ex.c ****     {
 1913              		.loc 1 947 71 discriminator 1 view .LVU542
 1914 001e 2369     		ldr	r3, [r4, #16]
 947:Drivers/STM32G0xx_HAL_Driver/Src/stm32g0xx_hal_uart_ex.c ****     {
 1915              		.loc 1 947 56 discriminator 1 view .LVU543
 1916 0020 002B     		cmp	r3, #0
 1917 0022 01D1     		bne	.L102
 949:Drivers/STM32G0xx_HAL_Driver/Src/stm32g0xx_hal_uart_ex.c ****       {
 1918              		.loc 1 949 7 is_stmt 1 view .LVU544
 949:Drivers/STM32G0xx_HAL_Driver/Src/stm32g0xx_hal_uart_ex.c ****       {
 1919              		.loc 1 949 10 is_stmt 0 view .LVU545
 1920 0024 CB07     		lsls	r3, r1, #31
 1921 0026 22D4     		bmi	.L107
 1922              	.L102:
 956:Drivers/STM32G0xx_HAL_Driver/Src/stm32g0xx_hal_uart_ex.c ****     huart->RxEventType = HAL_UART_RXEVENT_TC;
 1923              		.loc 1 956 5 is_stmt 1 view .LVU546
 956:Drivers/STM32G0xx_HAL_Driver/Src/stm32g0xx_hal_uart_ex.c ****     huart->RxEventType = HAL_UART_RXEVENT_TC;
 1924              		.loc 1 956 26 is_stmt 0 view .LVU547
 1925 0028 0123     		movs	r3, #1
 1926 002a E366     		str	r3, [r4, #108]
 957:Drivers/STM32G0xx_HAL_Driver/Src/stm32g0xx_hal_uart_ex.c **** 
 1927              		.loc 1 957 5 is_stmt 1 view .LVU548
 957:Drivers/STM32G0xx_HAL_Driver/Src/stm32g0xx_hal_uart_ex.c **** 
 1928              		.loc 1 957 24 is_stmt 0 view .LVU549
 1929 002c 0023     		movs	r3, #0
 1930 002e 2367     		str	r3, [r4, #112]
 959:Drivers/STM32G0xx_HAL_Driver/Src/stm32g0xx_hal_uart_ex.c **** 
 1931              		.loc 1 959 5 is_stmt 1 view .LVU550
 959:Drivers/STM32G0xx_HAL_Driver/Src/stm32g0xx_hal_uart_ex.c **** 
 1932              		.loc 1 959 15 is_stmt 0 view .LVU551
 1933 0030 2000     		movs	r0, r4
 1934 0032 FFF7FEFF 		bl	UART_Start_Receive_DMA
 1935              	.LVL145:
 962:Drivers/STM32G0xx_HAL_Driver/Src/stm32g0xx_hal_uart_ex.c ****     {
 1936              		.loc 1 962 5 is_stmt 1 view .LVU552
 962:Drivers/STM32G0xx_HAL_Driver/Src/stm32g0xx_hal_uart_ex.c ****     {
 1937              		.loc 1 962 8 is_stmt 0 view .LVU553
 1938 0036 0028     		cmp	r0, #0
 1939 0038 14D1     		bne	.L101
 964:Drivers/STM32G0xx_HAL_Driver/Src/stm32g0xx_hal_uart_ex.c ****       {
 1940              		.loc 1 964 7 is_stmt 1 view .LVU554
 964:Drivers/STM32G0xx_HAL_Driver/Src/stm32g0xx_hal_uart_ex.c ****       {
 1941              		.loc 1 964 16 is_stmt 0 view .LVU555
 1942 003a E36E     		ldr	r3, [r4, #108]
 964:Drivers/STM32G0xx_HAL_Driver/Src/stm32g0xx_hal_uart_ex.c ****       {
 1943              		.loc 1 964 10 view .LVU556
 1944 003c 012B     		cmp	r3, #1
 1945 003e 01D0     		beq	.L109
 975:Drivers/STM32G0xx_HAL_Driver/Src/stm32g0xx_hal_uart_ex.c ****       }
 1946              		.loc 1 975 16 view .LVU557
 1947 0040 0120     		movs	r0, #1
 1948              	.LVL146:
ARM GAS  C:\Users\W_LINU~1\AppData\Local\Temp\ccQ78mwl.s 			page 71


 979:Drivers/STM32G0xx_HAL_Driver/Src/stm32g0xx_hal_uart_ex.c ****   }
 1949              		.loc 1 979 5 is_stmt 1 view .LVU558
 979:Drivers/STM32G0xx_HAL_Driver/Src/stm32g0xx_hal_uart_ex.c ****   }
 1950              		.loc 1 979 12 is_stmt 0 view .LVU559
 1951 0042 0FE0     		b	.L101
 1952              	.LVL147:
 1953              	.L109:
 966:Drivers/STM32G0xx_HAL_Driver/Src/stm32g0xx_hal_uart_ex.c ****         ATOMIC_SET_BIT(huart->Instance->CR1, USART_CR1_IDLEIE);
 1954              		.loc 1 966 9 is_stmt 1 view .LVU560
 1955 0044 2368     		ldr	r3, [r4]
 1956 0046 1021     		movs	r1, #16
 1957 0048 1962     		str	r1, [r3, #32]
 967:Drivers/STM32G0xx_HAL_Driver/Src/stm32g0xx_hal_uart_ex.c ****       }
 1958              		.loc 1 967 9 view .LVU561
 1959              	.LBB51:
 967:Drivers/STM32G0xx_HAL_Driver/Src/stm32g0xx_hal_uart_ex.c ****       }
 1960              		.loc 1 967 9 view .LVU562
 967:Drivers/STM32G0xx_HAL_Driver/Src/stm32g0xx_hal_uart_ex.c ****       }
 1961              		.loc 1 967 9 view .LVU563
 1962              	.LBB52:
 1963              	.LBI52:
 449:Drivers/CMSIS/Include/cmsis_gcc.h **** {
 1964              		.loc 2 449 31 view .LVU564
 1965              	.LBB53:
 451:Drivers/CMSIS/Include/cmsis_gcc.h **** 
 1966              		.loc 2 451 3 view .LVU565
 453:Drivers/CMSIS/Include/cmsis_gcc.h ****   return(result);
 1967              		.loc 2 453 3 view .LVU566
 1968              		.syntax divided
 1969              	@ 453 "Drivers/CMSIS/Include/cmsis_gcc.h" 1
 1970 004a EFF3108C 		MRS ip, primask
 1971              	@ 0 "" 2
 1972              	.LVL148:
 454:Drivers/CMSIS/Include/cmsis_gcc.h **** }
 1973              		.loc 2 454 3 view .LVU567
 454:Drivers/CMSIS/Include/cmsis_gcc.h **** }
 1974              		.loc 2 454 3 is_stmt 0 view .LVU568
 1975              		.thumb
 1976              		.syntax unified
 1977              	.LBE53:
 1978              	.LBE52:
 967:Drivers/STM32G0xx_HAL_Driver/Src/stm32g0xx_hal_uart_ex.c ****       }
 1979              		.loc 1 967 9 is_stmt 1 view .LVU569
 1980              	.LBB54:
 1981              	.LBI54:
 479:Drivers/CMSIS/Include/cmsis_gcc.h **** {
 1982              		.loc 2 479 27 view .LVU570
 1983              	.LBB55:
 481:Drivers/CMSIS/Include/cmsis_gcc.h **** }
 1984              		.loc 2 481 3 view .LVU571
 1985 004e 0123     		movs	r3, #1
 1986              		.syntax divided
 1987              	@ 481 "Drivers/CMSIS/Include/cmsis_gcc.h" 1
 1988 0050 83F31088 		MSR primask, r3
 1989              	@ 0 "" 2
 1990              	.LVL149:
 481:Drivers/CMSIS/Include/cmsis_gcc.h **** }
ARM GAS  C:\Users\W_LINU~1\AppData\Local\Temp\ccQ78mwl.s 			page 72


 1991              		.loc 2 481 3 is_stmt 0 view .LVU572
 1992              		.thumb
 1993              		.syntax unified
 1994              	.LBE55:
 1995              	.LBE54:
 967:Drivers/STM32G0xx_HAL_Driver/Src/stm32g0xx_hal_uart_ex.c ****       }
 1996              		.loc 1 967 9 is_stmt 1 view .LVU573
 1997 0054 2268     		ldr	r2, [r4]
 1998 0056 1368     		ldr	r3, [r2]
 1999 0058 0B43     		orrs	r3, r1
 2000 005a 1360     		str	r3, [r2]
 967:Drivers/STM32G0xx_HAL_Driver/Src/stm32g0xx_hal_uart_ex.c ****       }
 2001              		.loc 1 967 9 view .LVU574
 2002              	.LVL150:
 2003              	.LBB56:
 2004              	.LBI56:
 479:Drivers/CMSIS/Include/cmsis_gcc.h **** {
 2005              		.loc 2 479 27 view .LVU575
 2006              	.LBB57:
 481:Drivers/CMSIS/Include/cmsis_gcc.h **** }
 2007              		.loc 2 481 3 view .LVU576
 2008              		.syntax divided
 2009              	@ 481 "Drivers/CMSIS/Include/cmsis_gcc.h" 1
 2010 005c 8CF31088 		MSR primask, ip
 2011              	@ 0 "" 2
 2012              		.loc 2 482 1 is_stmt 0 view .LVU577
 2013              		.thumb
 2014              		.syntax unified
 2015 0060 00E0     		b	.L101
 2016              	.LVL151:
 2017              	.L104:
 2018              		.loc 2 482 1 view .LVU578
 2019              	.LBE57:
 2020              	.LBE56:
 2021              	.LBE51:
 983:Drivers/STM32G0xx_HAL_Driver/Src/stm32g0xx_hal_uart_ex.c ****   }
 2022              		.loc 1 983 12 view .LVU579
 2023 0062 0220     		movs	r0, #2
 2024              	.LVL152:
 2025              	.L101:
 985:Drivers/STM32G0xx_HAL_Driver/Src/stm32g0xx_hal_uart_ex.c **** 
 2026              		.loc 1 985 1 view .LVU580
 2027              		@ sp needed
 2028              	.LVL153:
 985:Drivers/STM32G0xx_HAL_Driver/Src/stm32g0xx_hal_uart_ex.c **** 
 2029              		.loc 1 985 1 view .LVU581
 2030 0064 10BD     		pop	{r4, pc}
 2031              	.LVL154:
 2032              	.L105:
 941:Drivers/STM32G0xx_HAL_Driver/Src/stm32g0xx_hal_uart_ex.c ****     }
 2033              		.loc 1 941 14 view .LVU582
 2034 0066 0120     		movs	r0, #1
 2035              	.LVL155:
 941:Drivers/STM32G0xx_HAL_Driver/Src/stm32g0xx_hal_uart_ex.c ****     }
 2036              		.loc 1 941 14 view .LVU583
 2037 0068 FCE7     		b	.L101
 2038              	.LVL156:
ARM GAS  C:\Users\W_LINU~1\AppData\Local\Temp\ccQ78mwl.s 			page 73


 2039              	.L106:
 941:Drivers/STM32G0xx_HAL_Driver/Src/stm32g0xx_hal_uart_ex.c ****     }
 2040              		.loc 1 941 14 view .LVU584
 2041 006a 0120     		movs	r0, #1
 2042              	.LVL157:
 941:Drivers/STM32G0xx_HAL_Driver/Src/stm32g0xx_hal_uart_ex.c ****     }
 2043              		.loc 1 941 14 view .LVU585
 2044 006c FAE7     		b	.L101
 2045              	.L107:
 951:Drivers/STM32G0xx_HAL_Driver/Src/stm32g0xx_hal_uart_ex.c ****       }
 2046              		.loc 1 951 17 view .LVU586
 2047 006e 0120     		movs	r0, #1
 2048 0070 F8E7     		b	.L101
 2049              		.cfi_endproc
 2050              	.LFE304:
 2052              		.section	.text.HAL_UARTEx_GetRxEventType,"ax",%progbits
 2053              		.align	1
 2054              		.global	HAL_UARTEx_GetRxEventType
 2055              		.syntax unified
 2056              		.code	16
 2057              		.thumb_func
 2059              	HAL_UARTEx_GetRxEventType:
 2060              	.LVL158:
 2061              	.LFB305:
1012:Drivers/STM32G0xx_HAL_Driver/Src/stm32g0xx_hal_uart_ex.c ****   /* Return Rx Event type value, as stored in UART handle */
 2062              		.loc 1 1012 1 is_stmt 1 view -0
 2063              		.cfi_startproc
 2064              		@ args = 0, pretend = 0, frame = 0
 2065              		@ frame_needed = 0, uses_anonymous_args = 0
 2066              		@ link register save eliminated.
1014:Drivers/STM32G0xx_HAL_Driver/Src/stm32g0xx_hal_uart_ex.c **** }
 2067              		.loc 1 1014 3 view .LVU588
1014:Drivers/STM32G0xx_HAL_Driver/Src/stm32g0xx_hal_uart_ex.c **** }
 2068              		.loc 1 1014 15 is_stmt 0 view .LVU589
 2069 0000 006F     		ldr	r0, [r0, #112]
 2070              	.LVL159:
1015:Drivers/STM32G0xx_HAL_Driver/Src/stm32g0xx_hal_uart_ex.c **** 
 2071              		.loc 1 1015 1 view .LVU590
 2072              		@ sp needed
 2073 0002 7047     		bx	lr
 2074              		.cfi_endproc
 2075              	.LFE305:
 2077              		.section	.rodata.denominator.0,"a"
 2078              		.align	2
 2081              	denominator.0:
 2082 0000 08040204 		.ascii	"\010\004\002\004\010\001\001\001"
 2082      08010101 
 2083              		.section	.rodata.numerator.1,"a"
 2084              		.align	2
 2087              	numerator.1:
 2088 0000 01010103 		.ascii	"\001\001\001\003\007\001\000\000"
 2088      07010000 
 2089              		.text
 2090              	.Letext0:
 2091              		.file 3 "f:\\vscode-for-stm32\\gcc\\12.2-mpacbti-bet1\\arm-none-eabi\\include\\machine\\_default_t
 2092              		.file 4 "f:\\vscode-for-stm32\\gcc\\12.2-mpacbti-bet1\\arm-none-eabi\\include\\sys\\_stdint.h"
 2093              		.file 5 "Drivers/CMSIS/Device/ST/STM32G0xx/Include/stm32g030xx.h"
ARM GAS  C:\Users\W_LINU~1\AppData\Local\Temp\ccQ78mwl.s 			page 74


 2094              		.file 6 "Drivers/CMSIS/Device/ST/STM32G0xx/Include/stm32g0xx.h"
 2095              		.file 7 "Drivers/STM32G0xx_HAL_Driver/Inc/stm32g0xx_hal_def.h"
 2096              		.file 8 "Drivers/STM32G0xx_HAL_Driver/Inc/stm32g0xx_hal_dma.h"
 2097              		.file 9 "Drivers/STM32G0xx_HAL_Driver/Inc/stm32g0xx_hal_uart.h"
 2098              		.file 10 "Drivers/STM32G0xx_HAL_Driver/Inc/stm32g0xx_hal_uart_ex.h"
 2099              		.file 11 "Drivers/STM32G0xx_HAL_Driver/Inc/stm32g0xx_ll_dma.h"
 2100              		.file 12 "Drivers/STM32G0xx_HAL_Driver/Inc/stm32g0xx_hal.h"
ARM GAS  C:\Users\W_LINU~1\AppData\Local\Temp\ccQ78mwl.s 			page 75


DEFINED SYMBOLS
                            *ABS*:00000000 stm32g0xx_hal_uart_ex.c
C:\Users\W_LINU~1\AppData\Local\Temp\ccQ78mwl.s:19     .text.UARTEx_Wakeup_AddressConfig:00000000 $t
C:\Users\W_LINU~1\AppData\Local\Temp\ccQ78mwl.s:24     .text.UARTEx_Wakeup_AddressConfig:00000000 UARTEx_Wakeup_AddressConfig
C:\Users\W_LINU~1\AppData\Local\Temp\ccQ78mwl.s:67     .text.UARTEx_SetNbDataToProcess:00000000 $t
C:\Users\W_LINU~1\AppData\Local\Temp\ccQ78mwl.s:72     .text.UARTEx_SetNbDataToProcess:00000000 UARTEx_SetNbDataToProcess
C:\Users\W_LINU~1\AppData\Local\Temp\ccQ78mwl.s:174    .text.UARTEx_SetNbDataToProcess:00000048 $d
C:\Users\W_LINU~1\AppData\Local\Temp\ccQ78mwl.s:2087   .rodata.numerator.1:00000000 numerator.1
C:\Users\W_LINU~1\AppData\Local\Temp\ccQ78mwl.s:2081   .rodata.denominator.0:00000000 denominator.0
C:\Users\W_LINU~1\AppData\Local\Temp\ccQ78mwl.s:180    .text.HAL_RS485Ex_Init:00000000 $t
C:\Users\W_LINU~1\AppData\Local\Temp\ccQ78mwl.s:186    .text.HAL_RS485Ex_Init:00000000 HAL_RS485Ex_Init
C:\Users\W_LINU~1\AppData\Local\Temp\ccQ78mwl.s:333    .text.HAL_RS485Ex_Init:0000008c $d
C:\Users\W_LINU~1\AppData\Local\Temp\ccQ78mwl.s:339    .text.HAL_UARTEx_WakeupCallback:00000000 $t
C:\Users\W_LINU~1\AppData\Local\Temp\ccQ78mwl.s:345    .text.HAL_UARTEx_WakeupCallback:00000000 HAL_UARTEx_WakeupCallback
C:\Users\W_LINU~1\AppData\Local\Temp\ccQ78mwl.s:361    .text.HAL_UARTEx_RxFifoFullCallback:00000000 $t
C:\Users\W_LINU~1\AppData\Local\Temp\ccQ78mwl.s:367    .text.HAL_UARTEx_RxFifoFullCallback:00000000 HAL_UARTEx_RxFifoFullCallback
C:\Users\W_LINU~1\AppData\Local\Temp\ccQ78mwl.s:383    .text.HAL_UARTEx_TxFifoEmptyCallback:00000000 $t
C:\Users\W_LINU~1\AppData\Local\Temp\ccQ78mwl.s:389    .text.HAL_UARTEx_TxFifoEmptyCallback:00000000 HAL_UARTEx_TxFifoEmptyCallback
C:\Users\W_LINU~1\AppData\Local\Temp\ccQ78mwl.s:405    .text.HAL_MultiProcessorEx_AddressLength_Set:00000000 $t
C:\Users\W_LINU~1\AppData\Local\Temp\ccQ78mwl.s:411    .text.HAL_MultiProcessorEx_AddressLength_Set:00000000 HAL_MultiProcessorEx_AddressLength_Set
C:\Users\W_LINU~1\AppData\Local\Temp\ccQ78mwl.s:478    .text.HAL_UARTEx_StopModeWakeUpSourceConfig:00000000 $t
C:\Users\W_LINU~1\AppData\Local\Temp\ccQ78mwl.s:484    .text.HAL_UARTEx_StopModeWakeUpSourceConfig:00000000 HAL_UARTEx_StopModeWakeUpSourceConfig
C:\Users\W_LINU~1\AppData\Local\Temp\ccQ78mwl.s:616    .text.HAL_UARTEx_StopModeWakeUpSourceConfig:00000080 $d
C:\Users\W_LINU~1\AppData\Local\Temp\ccQ78mwl.s:622    .text.HAL_UARTEx_EnableStopMode:00000000 $t
C:\Users\W_LINU~1\AppData\Local\Temp\ccQ78mwl.s:628    .text.HAL_UARTEx_EnableStopMode:00000000 HAL_UARTEx_EnableStopMode
C:\Users\W_LINU~1\AppData\Local\Temp\ccQ78mwl.s:739    .text.HAL_UARTEx_DisableStopMode:00000000 $t
C:\Users\W_LINU~1\AppData\Local\Temp\ccQ78mwl.s:745    .text.HAL_UARTEx_DisableStopMode:00000000 HAL_UARTEx_DisableStopMode
C:\Users\W_LINU~1\AppData\Local\Temp\ccQ78mwl.s:855    .text.HAL_UARTEx_EnableFifoMode:00000000 $t
C:\Users\W_LINU~1\AppData\Local\Temp\ccQ78mwl.s:861    .text.HAL_UARTEx_EnableFifoMode:00000000 HAL_UARTEx_EnableFifoMode
C:\Users\W_LINU~1\AppData\Local\Temp\ccQ78mwl.s:952    .text.HAL_UARTEx_DisableFifoMode:00000000 $t
C:\Users\W_LINU~1\AppData\Local\Temp\ccQ78mwl.s:958    .text.HAL_UARTEx_DisableFifoMode:00000000 HAL_UARTEx_DisableFifoMode
C:\Users\W_LINU~1\AppData\Local\Temp\ccQ78mwl.s:1041   .text.HAL_UARTEx_DisableFifoMode:0000003c $d
C:\Users\W_LINU~1\AppData\Local\Temp\ccQ78mwl.s:1046   .text.HAL_UARTEx_SetTxFifoThreshold:00000000 $t
C:\Users\W_LINU~1\AppData\Local\Temp\ccQ78mwl.s:1052   .text.HAL_UARTEx_SetTxFifoThreshold:00000000 HAL_UARTEx_SetTxFifoThreshold
C:\Users\W_LINU~1\AppData\Local\Temp\ccQ78mwl.s:1148   .text.HAL_UARTEx_SetRxFifoThreshold:00000000 $t
C:\Users\W_LINU~1\AppData\Local\Temp\ccQ78mwl.s:1154   .text.HAL_UARTEx_SetRxFifoThreshold:00000000 HAL_UARTEx_SetRxFifoThreshold
C:\Users\W_LINU~1\AppData\Local\Temp\ccQ78mwl.s:1249   .text.HAL_UARTEx_SetRxFifoThreshold:0000004c $d
C:\Users\W_LINU~1\AppData\Local\Temp\ccQ78mwl.s:1254   .text.HAL_UARTEx_ReceiveToIdle:00000000 $t
C:\Users\W_LINU~1\AppData\Local\Temp\ccQ78mwl.s:1260   .text.HAL_UARTEx_ReceiveToIdle:00000000 HAL_UARTEx_ReceiveToIdle
C:\Users\W_LINU~1\AppData\Local\Temp\ccQ78mwl.s:1680   .text.HAL_UARTEx_ReceiveToIdle:000001a0 $d
C:\Users\W_LINU~1\AppData\Local\Temp\ccQ78mwl.s:1685   .text.HAL_UARTEx_ReceiveToIdle_IT:00000000 $t
C:\Users\W_LINU~1\AppData\Local\Temp\ccQ78mwl.s:1691   .text.HAL_UARTEx_ReceiveToIdle_IT:00000000 HAL_UARTEx_ReceiveToIdle_IT
C:\Users\W_LINU~1\AppData\Local\Temp\ccQ78mwl.s:1869   .text.HAL_UARTEx_ReceiveToIdle_DMA:00000000 $t
C:\Users\W_LINU~1\AppData\Local\Temp\ccQ78mwl.s:1875   .text.HAL_UARTEx_ReceiveToIdle_DMA:00000000 HAL_UARTEx_ReceiveToIdle_DMA
C:\Users\W_LINU~1\AppData\Local\Temp\ccQ78mwl.s:2053   .text.HAL_UARTEx_GetRxEventType:00000000 $t
C:\Users\W_LINU~1\AppData\Local\Temp\ccQ78mwl.s:2059   .text.HAL_UARTEx_GetRxEventType:00000000 HAL_UARTEx_GetRxEventType
C:\Users\W_LINU~1\AppData\Local\Temp\ccQ78mwl.s:2078   .rodata.denominator.0:00000000 $d
C:\Users\W_LINU~1\AppData\Local\Temp\ccQ78mwl.s:2084   .rodata.numerator.1:00000000 $d

UNDEFINED SYMBOLS
__aeabi_idiv
UART_SetConfig
UART_CheckIdleState
HAL_UART_MspInit
UART_AdvFeatureConfig
HAL_GetTick
UART_WaitOnFlagUntilTimeout
ARM GAS  C:\Users\W_LINU~1\AppData\Local\Temp\ccQ78mwl.s 			page 76


UART_Start_Receive_IT
UART_Start_Receive_DMA
